(dp0
S'heart'
p1
(lp2
(lp3
cnumpy.core.multiarray
scalar
p4
(cnumpy
dtype
p5
(S'f8'
p6
I0
I1
tp7
Rp8
(I3
S'<'
p9
NNNI-1
I-1
I0
tp10
bS'\xba\xe8\xa2\x8b.\xba\xe8?'
p11
tp12
Rp13
ag4
(g8
S'\x18\x86a\x18\x86a\xe8?'
p14
tp15
Rp16
aF0.050852060317993164
aI66
aS'kernel = 0 degree'
p17
ag4
(g8
S'\xba\xe8\xa2\x8b.\xba\xe8?'
p18
tp19
Rp20
ag4
(g8
S'\xd9\x89\x9d\xd8\x89\x9d\xe8?'
p21
tp22
Rp23
aF0.04904913902282715
aI66
aS'kernel = 0 degree'
p24
ag4
(g8
S'F\x17]t\xd1E\xe7?'
p25
tp26
Rp27
ag4
(g8
S'\x89\x87\x87\x87\x87\x87\xe7?'
p28
tp29
Rp30
aF0.04995298385620117
aI66
aS'kernel = 1 degree'
p31
aa(lp32
g4
(g8
S'\xab\xaa\xaa\xaa\xaa\xaa\xea?'
p33
tp34
Rp35
ag4
(g8
S'\x19\x19\x19\x19\x19\x19\xe9?'
p36
tp37
Rp38
aF0.04230308532714844
aI66
aS'kernel = 0 degree'
p39
ag4
(g8
S'6\xd9d\x93M6\xe9?'
p40
tp41
Rp42
ag4
(g8
S'\xaa\xaa\xaa\xaa\xaa\xaa\xe6?'
p43
tp44
Rp45
aF0.06055283546447754
aI66
aS'kernel = 0 degree'
p46
ag4
(g8
S'\xba\xe8\xa2\x8b.\xba\xe8?'
p47
tp48
Rp49
ag4
(g8
S'\x8d\xf5\xa1\xb1>4\xe6?'
p50
tp51
Rp52
aF0.03719186782836914
aI66
aS'kernel = 0 degree'
p53
aa(lp54
g4
(g8
S"'\x9bl\xb2\xc9&\xeb?"
p55
tp56
Rp57
ag4
(g8
S'By\r\xe55\x94\xe7?'
p58
tp59
Rp60
aF0.041783809661865234
aI66
aS'kernel = 0 degree'
p61
ag4
(g8
S'\xb2\xc9&\x9bl\xb2\xe9?'
p62
tp63
Rp64
ag4
(g8
S'\xda\x95\xa8]\x89\xda\xe5?'
p65
tp66
Rp67
aF0.0770258903503418
aI66
aS'kernel = 0 degree'
p68
ag4
(g8
S'N6\xd9d\x93M\xe6?'
p69
tp70
Rp71
ag4
(g8
S'"\x0bY\xc8B\x16\xe2?'
p72
tp73
Rp74
aF0.052243947982788086
aI66
aS'kernel = 0 degree'
p75
aa(lp76
g4
(g8
S'\xba\xe8\xa2\x8b.\xba\xe8?'
p77
tp78
Rp79
ag4
(g8
S'W\x10\x93+\x88\xc9\xe5?'
p80
tp81
Rp82
aF0.0623478889465332
aI66
aS'kernel = 0 degree'
p83
ag4
(g8
S"'\x9bl\xb2\xc9&\xeb?"
p84
tp85
Rp86
ag4
(g8
S'VUUUUU\xe9?'
p87
tp88
Rp89
aF0.049798011779785156
aI66
aS'kernel = 0 degree'
p90
ag4
(g8
S'N6\xd9d\x93M\xe6?'
p91
tp92
Rp93
ag4
(g8
S'!\x0bY\xc8B\x16\xe2?'
p94
tp95
Rp96
aF0.05328202247619629
aI66
aS'kernel = 0 degree'
p97
aa(lp98
g4
(g8
S'\xab\xaa\xaa\xaa\xaa\xaa\xea?'
p99
tp100
Rp101
ag4
(g8
S'2\x9d\xc5t\x16\xd3\xe9?'
p102
tp103
Rp104
aF0.07434201240539551
aI66
aS'kernel = 0 degree'
p105
ag4
(g8
S'\xba\xe8\xa2\x8b.\xba\xe8?'
p106
tp107
Rp108
ag4
(g8
S'\xb2\x15A\xc3I\xdd\xe7?'
p109
tp110
Rp111
aF0.05212903022766113
aI66
aS'kernel = 0 degree'
p112
ag4
(g8
S'/\xba\xe8\xa2\x8b.\xea?'
p113
tp114
Rp115
ag4
(g8
S'\xa8\x11\x96{\x1aa\xe9?'
p116
tp117
Rp118
aF0.05299711227416992
aI66
aS'kernel = 0 degree'
p119
aa(lp120
g4
(g8
S'>\xf8\xe0\x83\x0f>\xe8?'
p121
tp122
Rp123
ag4
(g8
S'Noz\xd3\x9b\xde\xe4?'
p124
tp125
Rp126
aF0.026279211044311523
aI66
aS'kernel = 0 degree'
p127
ag4
(g8
S'>\xf8\xe0\x83\x0f>\xe8?'
p128
tp129
Rp130
ag4
(g8
S'^t\xd1E\x17]\xe4?'
p131
tp132
Rp133
aF0.05434989929199219
aI66
aS'kernel = 0 degree'
p134
ag4
(g8
S'\xc2\x07\x1f|\xf0\xc1\xe7?'
p135
tp136
Rp137
ag4
(g8
S'VUUUUU\xe5?'
p138
tp139
Rp140
aF0.048486948013305664
aI66
aS'kernel = 0 degree'
p141
aa(lp142
g4
(g8
S'\xb2\xc9&\x9bl\xb2\xe9?'
p143
tp144
Rp145
ag4
(g8
S'\\AL\xae &\xe7?'
p146
tp147
Rp148
aF0.054646968841552734
aI66
aS'kernel = 0 degree'
p149
ag4
(g8
S'\xb2\xc9&\x9bl\xb2\xe9?'
p150
tp151
Rp152
ag4
(g8
S'\x955eMYS\xe6?'
p153
tp154
Rp155
aF0.06791281700134277
aI66
aS'kernel = 0 degree'
p156
ag4
(g8
S'6\xd9d\x93M6\xe9?'
p157
tp158
Rp159
ag4
(g8
S'UUUUUU\xe5?'
p160
tp161
Rp162
aF0.05836009979248047
aI66
aS'kernel = 0 degree'
p163
aa(lp164
g4
(g8
S'\xa3\x8b.\xba\xe8\xa2\xeb?'
p165
tp166
Rp167
ag4
(g8
S'6&\xd2\x03\x95\xb3\xeb?'
p168
tp169
Rp170
aF0.04274106025695801
aI66
aS'kernel = 0 degree'
p171
ag4
(g8
S'\xb2\xc9&\x9bl\xb2\xe9?'
p172
tp173
Rp174
ag4
(g8
S'Y\x96eY\x96e\xe9?'
p175
tp176
Rp177
aF0.03435993194580078
aI66
aS'kernel = 0 degree'
p178
ag4
(g8
S'N6\xd9d\x93M\xe6?'
p179
tp180
Rp181
ag4
(g8
S'\x01\x00\x00\x00\x00\x00\xe6?'
p182
tp183
Rp184
aF0.02416515350341797
aI66
aS'kernel = 0 degree'
p185
aa(lp186
g4
(g8
S'\xba\xe8\xa2\x8b.\xba\xe8?'
p187
tp188
Rp189
ag4
(g8
S'\x18\x86a\x18\x86a\xe8?'
p190
tp191
Rp192
aF0.030709028244018555
aI66
aS'kernel = 0 degree'
p193
ag4
(g8
S'\xba\xe8\xa2\x8b.\xba\xe8?'
p194
tp195
Rp196
ag4
(g8
S'\x91\x85,d!\x0b\xe9?'
p197
tp198
Rp199
aF0.04208207130432129
aI66
aS'kernel = 0 degree'
p200
ag4
(g8
S'6\xd9d\x93M6\xe9?'
p201
tp202
Rp203
ag4
(g8
S'7\xd9d\x93M6\xe9?'
p204
tp205
Rp206
aF0.033579111099243164
aI66
aS'kernel = 0 degree'
p207
aa(lp208
g4
(g8
S'\xa3\x8b.\xba\xe8\xa2\xeb?'
p209
tp210
Rp211
ag4
(g8
S'5&\xd2\x03\x95\xb3\xeb?'
p212
tp213
Rp214
aF0.033631086349487305
aI66
aS'kernel = 0 degree'
p215
ag4
(g8
S'\xb2\xc9&\x9bl\xb2\xe9?'
p216
tp217
Rp218
ag4
(g8
S'\x99\x99\x99\x99\x99\x99\xe9?'
p219
tp220
Rp221
aF0.0562291145324707
aI66
aS'kernel = 0 degree'
p222
ag4
(g8
S'\xba\xe8\xa2\x8b.\xba\xe8?'
p223
tp224
Rp225
ag4
(g8
S'\x03\x95\xb3[\xf8\xd5\xe8?'
p226
tp227
Rp228
aF0.04596114158630371
aI66
aS'kernel = 1 degree'
p229
aa(lp230
g4
(g8
S'/\xba\xe8\xa2\x8b.\xea?'
p231
tp232
Rp233
ag4
(g8
S'\xb7m\xdb\xb6m\xdb\xe6?'
p234
tp235
Rp236
aF0.008646011352539062
aI66
aS'kernel = 0 degree'
p237
ag4
(g8
S'F\x17]t\xd1E\xe7?'
p238
tp239
Rp240
ag4
(g8
S'\x99\x99\x99\x99\x99\x99\xe1?'
p241
tp242
Rp243
aF0.03183698654174805
aI66
aS'kernel = 0 degree'
p244
ag4
(g8
S'\xe9\xa2\x8b.\xba\xe8\xe2?'
p245
tp246
Rp247
ag4
(g8
S':\xa4&\x18oe\xdf?'
p248
tp249
Rp250
aF0.04071211814880371
aI66
aS'kernel = 1 degree'
p251
aa(lp252
g4
(g8
S'\xa3\x8b.\xba\xe8\xa2\xeb?'
p253
tp254
Rp255
ag4
(g8
S'\x88\xc6\xfa\xd0X\x1f\xea?'
p256
tp257
Rp258
aF0.03816699981689453
aI66
aS'kernel = 0 degree'
p259
ag4
(g8
S'\xb2\xc9&\x9bl\xb2\xe9?'
p260
tp261
Rp262
ag4
(g8
S'\xe1\xe5\x14\xbc\x9c\x82\xe7?'
p263
tp264
Rp265
aF0.03510594367980957
aI66
aS'kernel = 0 degree'
p266
ag4
(g8
S'6\xd9d\x93M6\xe9?'
p267
tp268
Rp269
ag4
(g8
S"'vb'vb\xe7?"
p270
tp271
Rp272
aF0.03577303886413574
aI66
aS'kernel = 0 degree'
p273
aa(lp274
g4
(g8
S"'\x9bl\xb2\xc9&\xeb?"
p275
tp276
Rp277
ag4
(g8
S'VUUUUU\xe9?'
p278
tp279
Rp280
aF0.024239778518676758
aI66
aS'kernel = 0 degree'
p281
ag4
(g8
S'/\xba\xe8\xa2\x8b.\xea?'
p282
tp283
Rp284
ag4
(g8
S'R\xb8\x1e\x85\xebQ\xe8?'
p285
tp286
Rp287
aF0.03391098976135254
aI66
aS'kernel = 0 degree'
p288
ag4
(g8
S'/\xba\xe8\xa2\x8b.\xea?'
p289
tp290
Rp291
ag4
(g8
S'R\xb8\x1e\x85\xebQ\xe8?'
p292
tp293
Rp294
aF0.030025005340576172
aI66
aS'kernel = 0 degree'
p295
aa(lp296
g4
(g8
S'\xab\xaa\xaa\xaa\xaa\xaa\xea?'
p297
tp298
Rp299
ag4
(g8
S'\x9b\xa6i\x9a\xa6i\xea?'
p300
tp301
Rp302
aF0.0406651496887207
aI66
aS'kernel = 0 degree'
p303
ag4
(g8
S'\xba\xe8\xa2\x8b.\xba\xe8?'
p304
tp305
Rp306
ag4
(g8
S'\xd8\x89\x9d\xd8\x89\x9d\xe8?'
p307
tp308
Rp309
aF0.04024982452392578
aI66
aS'kernel = 0 degree'
p310
ag4
(g8
S'/\xba\xe8\xa2\x8b.\xea?'
p311
tp312
Rp313
ag4
(g8
S'\xcf9\xe7\x9cs\xce\xe9?'
p314
tp315
Rp316
aF0.040856122970581055
aI66
aS'kernel = 0 degree'
p317
aa(lp318
g4
(g8
S'\x9bl\xb2\xc9&\x9b\xec?'
p319
tp320
Rp321
ag4
(g8
S'Z\xb0\x05[\xb0\x05\xeb?'
p322
tp323
Rp324
aF0.04054999351501465
aI66
aS'kernel = 0 degree'
p325
ag4
(g8
S"'\x9bl\xb2\xc9&\xeb?"
p326
tp327
Rp328
ag4
(g8
S'UUUUUU\xe9?'
p329
tp330
Rp331
aF0.03512907028198242
aI66
aS'kernel = 0 degree'
p332
ag4
(g8
S"'\x9bl\xb2\xc9&\xeb?"
p333
tp334
Rp335
ag4
(g8
S'/\xa1\xbd\x84\xf6\x12\xea?'
p336
tp337
Rp338
aF0.03775906562805176
aI66
aS'kernel = 0 degree'
p339
aa(lp340
g4
(g8
S'\xc2\x07\x1f|\xf0\xc1\xe7?'
p341
tp342
Rp343
ag4
(g8
S'Lg1\x9d\xc5t\xe6?'
p344
tp345
Rp346
aF0.03838396072387695
aI66
aS'kernel = 0 degree'
p347
ag4
(g8
S'\xc2\x07\x1f|\xf0\xc1\xe7?'
p348
tp349
Rp350
ag4
(g8
S'\x11\xac\xa3\xcd\xfb\x14\xe7?'
p351
tp352
Rp353
aF0.03737187385559082
aI66
aS'kernel = 0 degree'
p354
ag4
(g8
S']t\xd1E\x17]\xe4?'
p355
tp356
Rp357
ag4
(g8
S']t\xd1E\x17]\xe4?'
p358
tp359
Rp360
aF0.03295588493347168
aI66
aS'kernel = 1 degree'
p361
aa(lp362
g4
(g8
S'\xab\xaa\xaa\xaa\xaa\xaa\xea?'
p363
tp364
Rp365
ag4
(g8
S'\x19\x19\x19\x19\x19\x19\xe9?'
p366
tp367
Rp368
aF0.03413701057434082
aI66
aS'kernel = 0 degree'
p369
ag4
(g8
S'6\xd9d\x93M6\xe9?'
p370
tp371
Rp372
ag4
(g8
S'\x00\x00\x00\x00\x00\x00\xe8?'
p373
tp374
Rp375
aF0.04457902908325195
aI66
aS'kernel = 0 degree'
p376
ag4
(g8
S'F\x17]t\xd1E\xe7?'
p377
tp378
Rp379
ag4
(g8
S'\xff\xff\xff\xff\xff\xff\xe6?'
p380
tp381
Rp382
aF0.031672000885009766
aI66
aS'kernel = 0 degree'
p383
aa(lp384
g4
(g8
S'\xa3\x8b.\xba\xe8\xa2\xeb?'
p385
tp386
Rp387
ag4
(g8
S'5&\xd2\x03\x95\xb3\xeb?'
p388
tp389
Rp390
aF0.029773950576782227
aI66
aS'kernel = 0 degree'
p391
ag4
(g8
S'/\xba\xe8\xa2\x8b.\xea?'
p392
tp393
Rp394
ag4
(g8
S'ZZZZZZ\xea?'
p395
tp396
Rp397
aF0.03060007095336914
aI66
aS'kernel = 0 degree'
p398
ag4
(g8
S'>\xf8\xe0\x83\x0f>\xe8?'
p399
tp400
Rp401
ag4
(g8
S'6\xc2rO#,\xe7?'
p402
tp403
Rp404
aF0.0578770637512207
aI66
aS'kernel = 1 degree'
p405
aa(lp406
g4
(g8
S'6\xd9d\x93M6\xe9?'
p407
tp408
Rp409
ag4
(g8
S"(vb'vb\xe7?"
p410
tp411
Rp412
aF0.033586978912353516
aI66
aS'kernel = 0 degree'
p413
ag4
(g8
S'\xb2\xc9&\x9bl\xb2\xe9?'
p414
tp415
Rp416
ag4
(g8
S'\xd9\xd7\xd7\xd7\xd7\xd7\xe7?'
p417
tp418
Rp419
aF0.031410932540893555
aI66
aS'kernel = 0 degree'
p420
ag4
(g8
S'\xba\xe8\xa2\x8b.\xba\xe8?'
p421
tp422
Rp423
ag4
(g8
S'e\x9fCj\x82\xf1\xe6?'
p424
tp425
Rp426
aF0.03395986557006836
aI66
aS'kernel = 0 degree'
p427
aa(lp428
g4
(g8
S'\xb2\xc9&\x9bl\xb2\xe9?'
p429
tp430
Rp431
ag4
(g8
S'qX\xfb\x86\xb5o\xe8?'
p432
tp433
Rp434
aF0.027614831924438477
aI66
aS'kernel = 0 degree'
p435
ag4
(g8
S'6\xd9d\x93M6\xe9?'
p436
tp437
Rp438
ag4
(g8
S'C{\t\xed%\xb4\xe7?'
p439
tp440
Rp441
aF0.03159308433532715
aI66
aS'kernel = 0 degree'
p442
ag4
(g8
S'\xd1E\x17]t\xd1\xe5?'
p443
tp444
Rp445
ag4
(g8
S'\xc9\x10\xac\xa3\xcd\xfb\xe4?'
p446
tp447
Rp448
aF0.027070999145507812
aI66
aS'kernel = 0 degree'
p449
aa(lp450
g4
(g8
S'/\xba\xe8\xa2\x8b.\xea?'
p451
tp452
Rp453
ag4
(g8
S'\xa7\x11\x96{\x1aa\xe9?'
p454
tp455
Rp456
aF0.02921605110168457
aI66
aS'kernel = 0 degree'
p457
ag4
(g8
S'/\xba\xe8\xa2\x8b.\xea?'
p458
tp459
Rp460
ag4
(g8
S'\xa7\x11\x96{\x1aa\xe9?'
p461
tp462
Rp463
aF0.037262916564941406
aI66
aS'kernel = 0 degree'
p464
ag4
(g8
S'\xab\xaa\xaa\xaa\xaa\xaa\xea?'
p465
tp466
Rp467
ag4
(g8
S'Z\xa9\x95Z\xa9\x95\xea?'
p468
tp469
Rp470
aF0.04089498519897461
aI66
aS'kernel = 0 degree'
p471
aa(lp472
g4
(g8
S'\xab\xaa\xaa\xaa\xaa\xaa\xea?'
p473
tp474
Rp475
ag4
(g8
S'~\x0e\xa9\t\xc6[\xe9?'
p476
tp477
Rp478
aF0.032972097396850586
aI66
aS'kernel = 0 degree'
p479
ag4
(g8
S'6\xd9d\x93M6\xe9?'
p480
tp481
Rp482
ag4
(g8
S'C{\t\xed%\xb4\xe7?'
p483
tp484
Rp485
aF0.04193902015686035
aI66
aS'kernel = 0 degree'
p486
ag4
(g8
S'\xc2\x07\x1f|\xf0\xc1\xe7?'
p487
tp488
Rp489
ag4
(g8
S'\x1c\xd6\xbea\xed\x1b\xe6?'
p490
tp491
Rp492
aF0.02904510498046875
aI66
aS'kernel = 1 degree'
p493
aa(lp494
g4
(g8
S'\xa3\x8b.\xba\xe8\xa2\xeb?'
p495
tp496
Rp497
ag4
(g8
S'\xd8\x89\x9d\xd8\x89\x9d\xe8?'
p498
tp499
Rp500
aF0.03620505332946777
aI66
aS'kernel = 0 degree'
p501
ag4
(g8
S"'\x9bl\xb2\xc9&\xeb?"
p502
tp503
Rp504
ag4
(g8
S'\x90\x85,d!\x0b\xe9?'
p505
tp506
Rp507
aF0.034085988998413086
aI66
aS'kernel = 0 degree'
p508
ag4
(g8
S'\xb2\xc9&\x9bl\xb2\xe9?'
p509
tp510
Rp511
ag4
(g8
S'VUUUUU\xe5?'
p512
tp513
Rp514
aF0.033293962478637695
aI66
aS'kernel = 1 degree'
p515
aa(lp516
g4
(g8
S'\xa3\x8b.\xba\xe8\xa2\xeb?'
p517
tp518
Rp519
ag4
(g8
S'\t\xc6[\xd9\xe7\x90\xea?'
p520
tp521
Rp522
aF0.03400993347167969
aI66
aS'kernel = 0 degree'
p523
ag4
(g8
S'\xa3\x8b.\xba\xe8\xa2\xeb?'
p524
tp525
Rp526
ag4
(g8
S'\t\xc6[\xd9\xe7\x90\xea?'
p527
tp528
Rp529
aF0.04285097122192383
aI66
aS'kernel = 0 degree'
p530
ag4
(g8
S'>\xf8\xe0\x83\x0f>\xe8?'
p531
tp532
Rp533
ag4
(g8
S'UUUUUU\xe5?'
p534
tp535
Rp536
aF0.02584695816040039
aI66
aS'kernel = 0 degree'
p537
aa(lp538
g4
(g8
S'\xba\xe8\xa2\x8b.\xba\xe8?'
p539
tp540
Rp541
ag4
(g8
S'Dy\r\xe55\x94\xe7?'
p542
tp543
Rp544
aF0.04479408264160156
aI66
aS'kernel = 0 degree'
p545
ag4
(g8
S'6\xd9d\x93M6\xe9?'
p546
tp547
Rp548
ag4
(g8
S'\x0b\xd7\xa3p=\n\xe7?'
p549
tp550
Rp551
aF0.04031205177307129
aI66
aS'kernel = 0 degree'
p552
ag4
(g8
S'6\xd9d\x93M6\xe9?'
p553
tp554
Rp555
ag4
(g8
S"(vb'vb\xe7?"
p556
tp557
Rp558
aF0.0376439094543457
aI66
aS'kernel = 0 degree'
p559
aa(lp560
g4
(g8
S'\xab\xaa\xaa\xaa\xaa\xaa\xea?'
p561
tp562
Rp563
ag4
(g8
S'\x19\x19\x19\x19\x19\x19\xe9?'
p564
tp565
Rp566
aF0.04089617729187012
aI66
aS'kernel = 0 degree'
p567
ag4
(g8
S'\xc2\x07\x1f|\xf0\xc1\xe7?'
p568
tp569
Rp570
ag4
(g8
S'\x1c\xd6\xbea\xed\x1b\xe6?'
p571
tp572
Rp573
aF0.030009984970092773
aI66
aS'kernel = 0 degree'
p574
ag4
(g8
S'\xba\xe8\xa2\x8b.\xba\xe8?'
p575
tp576
Rp577
ag4
(g8
S'\x8d\xf5\xa1\xb1>4\xe6?'
p578
tp579
Rp580
aF0.03310990333557129
aI66
aS'kernel = 0 degree'
p581
aa(lp582
g4
(g8
S'\xba\xe8\xa2\x8b.\xba\xe8?'
p583
tp584
Rp585
ag4
(g8
S'E\x17]t\xd1E\xe7?'
p586
tp587
Rp588
aF0.03992795944213867
aI66
aS'kernel = 0 degree'
p589
ag4
(g8
S'\xba\xe8\xa2\x8b.\xba\xe8?'
p590
tp591
Rp592
ag4
(g8
S'By\r\xe55\x94\xe7?'
p593
tp594
Rp595
aF0.027113914489746094
aI66
aS'kernel = 0 degree'
p596
ag4
(g8
S'6\xd9d\x93M6\xe9?'
p597
tp598
Rp599
ag4
(g8
S'\xeei\x84\xe5\x9eF\xe8?'
p600
tp601
Rp602
aF0.03718304634094238
aI66
aS'kernel = 0 degree'
p603
aa(lp604
g4
(g8
S'\xab\xaa\xaa\xaa\xaa\xaa\xea?'
p605
tp606
Rp607
ag4
(g8
S'\x19\x19\x19\x19\x19\x19\xe9?'
p608
tp609
Rp610
aF0.04145312309265137
aI66
aS'kernel = 0 degree'
p611
ag4
(g8
S'/\xba\xe8\xa2\x8b.\xea?'
p612
tp613
Rp614
ag4
(g8
S'8\x8e\xe38\x8e\xe3\xe8?'
p615
tp616
Rp617
aF0.03218793869018555
aI66
aS'kernel = 0 degree'
p618
ag4
(g8
S'\xd9d\x93M6\xd9\xe4?'
p619
tp620
Rp621
ag4
(g8
S"'C\xb0\x8e6\xef\xe3?"
p622
tp623
Rp624
aF0.040187835693359375
aI66
aS'kernel = 0 degree'
p625
aa(lp626
g4
(g8
S'\xba\xe8\xa2\x8b.\xba\xe8?'
p627
tp628
Rp629
ag4
(g8
S'\x8e\xf5\xa1\xb1>4\xe6?'
p630
tp631
Rp632
aF0.037522077560424805
aI66
aS'kernel = 0 degree'
p633
ag4
(g8
S'6\xd9d\x93M6\xe9?'
p634
tp635
Rp636
ag4
(g8
S'\n\xd7\xa3p=\n\xe7?'
p637
tp638
Rp639
aF0.03353595733642578
aI66
aS'kernel = 0 degree'
p640
ag4
(g8
S'6\xd9d\x93M6\xe9?'
p641
tp642
Rp643
ag4
(g8
S'\xab\xaa\xaa\xaa\xaa\xaa\xe6?'
p644
tp645
Rp646
aF0.05193805694580078
aI66
aS'kernel = 0 degree'
p647
aa(lp648
g4
(g8
S'\xba\xe8\xa2\x8b.\xba\xe8?'
p649
tp650
Rp651
ag4
(g8
S'G\x17]t\xd1E\xe7?'
p652
tp653
Rp654
aF0.02759099006652832
aI66
aS'kernel = 0 degree'
p655
ag4
(g8
S'\xb2\xc9&\x9bl\xb2\xe9?'
p656
tp657
Rp658
ag4
(g8
S'\xd8\xd7\xd7\xd7\xd7\xd7\xe7?'
p659
tp660
Rp661
aF0.033843040466308594
aI66
aS'kernel = 0 degree'
p662
ag4
(g8
S']t\xd1E\x17]\xe4?'
p663
tp664
Rp665
ag4
(g8
S'233333\xe3?'
p666
tp667
Rp668
aF0.036969900131225586
aI66
aS'kernel = 1 degree'
p669
aa(lp670
g4
(g8
S'>\xf8\xe0\x83\x0f>\xe8?'
p671
tp672
Rp673
ag4
(g8
S'\xb7m\xdb\xb6m\xdb\xe6?'
p674
tp675
Rp676
aF0.03387308120727539
aI66
aS'kernel = 0 degree'
p677
ag4
(g8
S'F\x17]t\xd1E\xe7?'
p678
tp679
Rp680
ag4
(g8
S'{\x1aa\xb9\xa7\x11\xe6?'
p681
tp682
Rp683
aF0.04327678680419922
aI66
aS'kernel = 0 degree'
p684
ag4
(g8
S'\xb2\xc9&\x9bl\xb2\xe9?'
p685
tp686
Rp687
ag4
(g8
S'#h8\xa9\xfb\xf2\xe8?'
p688
tp689
Rp690
aF0.047070980072021484
aI66
aS'kernel = 1 degree'
p691
aa(lp692
g4
(g8
S'\xab\xaa\xaa\xaa\xaa\xaa\xea?'
p693
tp694
Rp695
ag4
(g8
S'\xaf\x1d\x98k\x07\xe6\xea?'
p696
tp697
Rp698
aF0.023880958557128906
aI66
aS'kernel = 0 degree'
p699
ag4
(g8
S'\xb2\xc9&\x9bl\xb2\xe9?'
p700
tp701
Rp702
ag4
(g8
S'\x9fQ\xe2g\x94\xf8\xe9?'
p703
tp704
Rp705
aF0.042749881744384766
aI66
aS'kernel = 0 degree'
p706
ag4
(g8
S'UUUUUU\xe5?'
p707
tp708
Rp709
ag4
(g8
S'\x00\x00\x00\x00\x00\x00\xe5?'
p710
tp711
Rp712
aF0.0378270149230957
aI66
aS'kernel = 1 degree'
p713
aa(lp714
g4
(g8
S'\x1f|\xf0\xc1\x07\x1f\xec?'
p715
tp716
Rp717
ag4
(g8
S'\xe1z\x14\xaeG\xe1\xea?'
p718
tp719
Rp720
aF0.03508901596069336
aI66
aS'kernel = 0 degree'
p721
ag4
(g8
S'\xab\xaa\xaa\xaa\xaa\xaa\xea?'
p722
tp723
Rp724
ag4
(g8
S'\xd9\x82-\xd8\x82-\xe8?'
p725
tp726
Rp727
aF0.03734588623046875
aI66
aS'kernel = 0 degree'
p728
ag4
(g8
S'\xab\xaa\xaa\xaa\xaa\xaa\xea?'
p729
tp730
Rp731
ag4
(g8
S'\x19\x19\x19\x19\x19\x19\xe9?'
p732
tp733
Rp734
aF0.0374150276184082
aI66
aS'kernel = 0 degree'
p735
aa(lp736
g4
(g8
S'6\xd9d\x93M6\xe9?'
p737
tp738
Rp739
ag4
(g8
S'\x89\x88\x88\x88\x88\x88\xe8?'
p740
tp741
Rp742
aF0.04331779479980469
aI66
aS'kernel = 0 degree'
p743
ag4
(g8
S'6\xd9d\x93M6\xe9?'
p744
tp745
Rp746
ag4
(g8
S'C{\t\xed%\xb4\xe7?'
p747
tp748
Rp749
aF0.04059910774230957
aI66
aS'kernel = 0 degree'
p750
ag4
(g8
S'\xb2\xc9&\x9bl\xb2\xe9?'
p751
tp752
Rp753
ag4
(g8
S'XG\x9b\xf7).\xe9?'
p754
tp755
Rp756
aF0.04573702812194824
aI66
aS'kernel = 0 degree'
p757
aa(lp758
g4
(g8
S'\x9bl\xb2\xc9&\x9b\xec?'
p759
tp760
Rp761
ag4
(g8
S'D\xb0\x8e6\xefS\xec?'
p762
tp763
Rp764
aF0.042788028717041016
aI66
aS'kernel = 0 degree'
p765
ag4
(g8
S'\xb2\xc9&\x9bl\xb2\xe9?'
p766
tp767
Rp768
ag4
(g8
S'\x99\x99\x99\x99\x99\x99\xe9?'
p769
tp770
Rp771
aF0.041014909744262695
aI66
aS'kernel = 0 degree'
p772
ag4
(g8
S"'\x9bl\xb2\xc9&\xeb?"
p773
tp774
Rp775
ag4
(g8
S'\xab\xaa\xaa\xaa\xaa\xaa\xea?'
p776
tp777
Rp778
aF0.037011146545410156
aI66
aS'kernel = 0 degree'
p779
aa(lp780
g4
(g8
S'\xc2\x07\x1f|\xf0\xc1\xe7?'
p781
tp782
Rp783
ag4
(g8
S'Lg1\x9d\xc5t\xe6?'
p784
tp785
Rp786
aF0.019411087036132812
aI66
aS'kernel = 0 degree'
p787
ag4
(g8
S'\xc2\x07\x1f|\xf0\xc1\xe7?'
p788
tp789
Rp790
ag4
(g8
S'\xda\xe7\x90\x9a`\xbc\xe5?'
p791
tp792
Rp793
aF0.03906393051147461
aI66
aS'kernel = 0 degree'
p794
ag4
(g8
S'\xba\xe8\xa2\x8b.\xba\xe8?'
p795
tp796
Rp797
ag4
(g8
S'E\x17]t\xd1E\xe7?'
p798
tp799
Rp800
aF0.03877687454223633
aI66
aS'kernel = 0 degree'
p801
aa(lp802
g4
(g8
S'\x9bl\xb2\xc9&\x9b\xec?'
p803
tp804
Rp805
ag4
(g8
S'D\xb0\x8e6\xefS\xec?'
p806
tp807
Rp808
aF0.03536701202392578
aI66
aS'kernel = 0 degree'
p809
ag4
(g8
S'\x17]t\xd1E\x17\xed?'
p810
tp811
Rp812
ag4
(g8
S'\xcd\xcc\xcc\xcc\xcc\xcc\xec?'
p813
tp814
Rp815
aF0.034789085388183594
aI66
aS'kernel = 0 degree'
p816
ag4
(g8
S'\x9bl\xb2\xc9&\x9b\xec?'
p817
tp818
Rp819
ag4
(g8
S'v_\x1e[\x114\xec?'
p820
tp821
Rp822
aF0.03898501396179199
aI66
aS'kernel = 0 degree'
p823
aa(lp824
g4
(g8
S'\xd1E\x17]t\xd1\xe5?'
p825
tp826
Rp827
ag4
(g8
S'\xca\x10\xac\xa3\xcd\xfb\xe4?'
p828
tp829
Rp830
aF0.03913998603820801
aI66
aS'kernel = 0 degree'
p831
ag4
(g8
S'\xd1E\x17]t\xd1\xe5?'
p832
tp833
Rp834
ag4
(g8
S'\xca\x10\xac\xa3\xcd\xfb\xe4?'
p835
tp836
Rp837
aF0.02718210220336914
aI66
aS'kernel = 0 degree'
p838
ag4
(g8
S'\xd1E\x17]t\xd1\xe5?'
p839
tp840
Rp841
ag4
(g8
S'_\x1e[\x114\x9c\xe4?'
p842
tp843
Rp844
aF0.03524303436279297
aI66
aS'kernel = 1 degree'
p845
aa(lp846
g4
(g8
S'\xa3\x8b.\xba\xe8\xa2\xeb?'
p847
tp848
Rp849
ag4
(g8
S'\x88\xc6\xfa\xd0X\x1f\xea?'
p850
tp851
Rp852
aF0.008668899536132812
aI66
aS'kernel = 0 degree'
p853
ag4
(g8
S'>\xf8\xe0\x83\x0f>\xe8?'
p854
tp855
Rp856
ag4
(g8
S"wb'vb'\xe6?"
p857
tp858
Rp859
aF0.03694295883178711
aI66
aS'kernel = 0 degree'
p860
ag4
(g8
S']t\xd1E\x17]\xe4?'
p861
tp862
Rp863
ag4
(g8
S'\x01\x00\x00\x00\x00\x00\xe4?'
p864
tp865
Rp866
aF0.04511380195617676
aI66
aS'kernel = 1 degree'
p867
aa(lp868
g4
(g8
S'/\xba\xe8\xa2\x8b.\xea?'
p869
tp870
Rp871
ag4
(g8
S':\x8e\xe38\x8e\xe3\xe8?'
p872
tp873
Rp874
aF0.0445399284362793
aI66
aS'kernel = 0 degree'
p875
ag4
(g8
S"'\x9bl\xb2\xc9&\xeb?"
p876
tp877
Rp878
ag4
(g8
S'\x93$I\x92$I\xea?'
p879
tp880
Rp881
aF0.03705906867980957
aI66
aS'kernel = 0 degree'
p882
ag4
(g8
S'/\xba\xe8\xa2\x8b.\xea?'
p883
tp884
Rp885
ag4
(g8
S'H\x92$I\x92$\xe9?'
p886
tp887
Rp888
aF0.02564096450805664
aI66
aS'kernel = 0 degree'
p889
aa(lp890
g4
(g8
S'6\xd9d\x93M6\xe9?'
p891
tp892
Rp893
ag4
(g8
S'\xeei\x84\xe5\x9eF\xe8?'
p894
tp895
Rp896
aF0.01369786262512207
aI66
aS'kernel = 0 degree'
p897
ag4
(g8
S'N6\xd9d\x93M\xe6?'
p898
tp899
Rp900
ag4
(g8
S'UUUUUU\xe5?'
p901
tp902
Rp903
aF0.00802302360534668
aI66
aS'kernel = 0 degree'
p904
ag4
(g8
S'\xc2\x07\x1f|\xf0\xc1\xe7?'
p905
tp906
Rp907
ag4
(g8
S'R\xdf\xd9\xa8\xefl\xe4?'
p908
tp909
Rp910
aF0.030312061309814453
aI66
aS'kernel = 0 degree'
p911
aa(lp912
g4
(g8
S'\xb2\xc9&\x9bl\xb2\xe9?'
p913
tp914
Rp915
ag4
(g8
S'$h8\xa9\xfb\xf2\xe8?'
p916
tp917
Rp918
aF0.028979063034057617
aI66
aS'kernel = 0 degree'
p919
ag4
(g8
S'>\xf8\xe0\x83\x0f>\xe8?'
p920
tp921
Rp922
ag4
(g8
S'6\xc2rO#,\xe7?'
p923
tp924
Rp925
aF0.02791309356689453
aI66
aS'kernel = 0 degree'
p926
ag4
(g8
S'\xca&\x9bl\xb2\xc9\xe6?'
p927
tp928
Rp929
ag4
(g8
S'M0\xde\xca>\x87\xe4?'
p930
tp931
Rp932
aF0.03325796127319336
aI66
aS'kernel = 0 degree'
p933
aa(lp934
g4
(g8
S'\xab\xaa\xaa\xaa\xaa\xaa\xea?'
p935
tp936
Rp937
ag4
(g8
S'\x19\x19\x19\x19\x19\x19\xe9?'
p938
tp939
Rp940
aF0.03601193428039551
aI66
aS'kernel = 0 degree'
p941
ag4
(g8
S'6\xd9d\x93M6\xe9?'
p942
tp943
Rp944
ag4
(g8
S'\xaa\xaa\xaa\xaa\xaa\xaa\xe6?'
p945
tp946
Rp947
aF0.04059720039367676
aI66
aS'kernel = 0 degree'
p948
ag4
(g8
S'\xba\xe8\xa2\x8b.\xba\xe8?'
p949
tp950
Rp951
ag4
(g8
S'W\x10\x93+\x88\xc9\xe5?'
p952
tp953
Rp954
aF0.046430110931396484
aI66
aS'kernel = 0 degree'
p955
aa(lp956
g4
(g8
S'\xb2\xc9&\x9bl\xb2\xe9?'
p957
tp958
Rp959
ag4
(g8
S'YG\x9b\xf7).\xe9?'
p960
tp961
Rp962
aF0.038713932037353516
aI66
aS'kernel = 0 degree'
p963
ag4
(g8
S'\xab\xaa\xaa\xaa\xaa\xaa\xea?'
p964
tp965
Rp966
ag4
(g8
S'\x9b\xa6i\x9a\xa6i\xea?'
p967
tp968
Rp969
aF0.042318105697631836
aI66
aS'kernel = 0 degree'
p970
ag4
(g8
S'\xba\xe8\xa2\x8b.\xba\xe8?'
p971
tp972
Rp973
ag4
(g8
S'Dy\r\xe55\x94\xe7?'
p974
tp975
Rp976
aF0.03640317916870117
aI66
aS'kernel = 0 degree'
p977
aa(lp978
g4
(g8
S'\x9bl\xb2\xc9&\x9b\xec?'
p979
tp980
Rp981
ag4
(g8
S'Z\xb0\x05[\xb0\x05\xeb?'
p982
tp983
Rp984
aF0.03519701957702637
aI66
aS'kernel = 0 degree'
p985
ag4
(g8
S'\xba\xe8\xa2\x8b.\xba\xe8?'
p986
tp987
Rp988
ag4
(g8
S'e\x9fCj\x82\xf1\xe6?'
p989
tp990
Rp991
aF0.008116006851196289
aI66
aS'kernel = 1 degree'
p992
ag4
(g8
S'6\xd9d\x93M6\xe9?'
p993
tp994
Rp995
ag4
(g8
S'C{\t\xed%\xb4\xe7?'
p996
tp997
Rp998
aF0.03659820556640625
aI66
aS'kernel = 0 degree'
p999
aa(lp1000
g4
(g8
S'\xab\xaa\xaa\xaa\xaa\xaa\xea?'
p1001
tp1002
Rp1003
ag4
(g8
S'\x93\xba/\x8f\xad\x08\xea?'
p1004
tp1005
Rp1006
aF0.00835108757019043
aI66
aS'kernel = 0 degree'
p1007
ag4
(g8
S'\xb2\xc9&\x9bl\xb2\xe9?'
p1008
tp1009
Rp1010
ag4
(g8
S'$h8\xa9\xfb\xf2\xe8?'
p1011
tp1012
Rp1013
aF0.011183023452758789
aI66
aS'kernel = 0 degree'
p1014
ag4
(g8
S'\xf0\xc1\x07\x1f|\xf0\xe1?'
p1015
tp1016
Rp1017
ag4
(g8
S'\xe4\xec\x16~5&\xe2?'
p1018
tp1019
Rp1020
aF0.008239030838012695
aI66
aS'kernel = 1 degree'
p1021
aa(lp1022
g4
(g8
S'6\xd9d\x93M6\xe9?'
p1023
tp1024
Rp1025
ag4
(g8
S'\xeei\x84\xe5\x9eF\xe8?'
p1026
tp1027
Rp1028
aF0.008358955383300781
aI66
aS'kernel = 0 degree'
p1029
ag4
(g8
S'F\x17]t\xd1E\xe7?'
p1030
tp1031
Rp1032
ag4
(g8
S'\xb5\xd6Zk\xad\xb5\xe6?'
p1033
tp1034
Rp1035
aF0.024567127227783203
aI66
aS'kernel = 0 degree'
p1036
ag4
(g8
S'\xca&\x9bl\xb2\xc9\xe6?'
p1037
tp1038
Rp1039
ag4
(g8
S'M0\xde\xca>\x87\xe4?'
p1040
tp1041
Rp1042
aF0.008057832717895508
aI66
aS'kernel = 1 degree'
p1043
aa(lp1044
g4
(g8
S'>\xf8\xe0\x83\x0f>\xe8?'
p1045
tp1046
Rp1047
ag4
(g8
S'\xbe\xf7\xde{\xef\xbd\xe7?'
p1048
tp1049
Rp1050
aF0.008911848068237305
aI66
aS'kernel = 0 degree'
p1051
ag4
(g8
S'\xc2\x07\x1f|\xf0\xc1\xe7?'
p1052
tp1053
Rp1054
ag4
(g8
S'UUUUUU\xe5?'
p1055
tp1056
Rp1057
aF0.008274078369140625
aI66
aS'kernel = 0 degree'
p1058
ag4
(g8
S'N6\xd9d\x93M\xe6?'
p1059
tp1060
Rp1061
ag4
(g8
S'\x00\x00\x00\x00\x00\x00\xe6?'
p1062
tp1063
Rp1064
aF0.007964849472045898
aI66
aS'kernel = 0 degree'
p1065
aa(lp1066
g4
(g8
S'6\xd9d\x93M6\xe9?'
p1067
tp1068
Rp1069
ag4
(g8
S'\x00\x00\x00\x00\x00\x00\xe8?'
p1070
tp1071
Rp1072
aF0.008559942245483398
aI66
aS'kernel = 0 degree'
p1073
ag4
(g8
S'>\xf8\xe0\x83\x0f>\xe8?'
p1074
tp1075
Rp1076
ag4
(g8
S'\xb6m\xdb\xb6m\xdb\xe6?'
p1077
tp1078
Rp1079
aF0.008186101913452148
aI66
aS'kernel = 0 degree'
p1080
ag4
(g8
S'/\xba\xe8\xa2\x8b.\xea?'
p1081
tp1082
Rp1083
ag4
(g8
S':\x8e\xe38\x8e\xe3\xe8?'
p1084
tp1085
Rp1086
aF0.007776021957397461
aI66
aS'kernel = 0 degree'
p1087
aa(lp1088
g4
(g8
S'\xba\xe8\xa2\x8b.\xba\xe8?'
p1089
tp1090
Rp1091
ag4
(g8
S'G\x17]t\xd1E\xe7?'
p1092
tp1093
Rp1094
aF0.008350849151611328
aI66
aS'kernel = 0 degree'
p1095
ag4
(g8
S'/\xba\xe8\xa2\x8b.\xea?'
p1096
tp1097
Rp1098
ag4
(g8
S':\x8e\xe38\x8e\xe3\xe8?'
p1099
tp1100
Rp1101
aF0.009660959243774414
aI66
aS'kernel = 0 degree'
p1102
ag4
(g8
S']t\xd1E\x17]\xe4?'
p1103
tp1104
Rp1105
ag4
(g8
S'\xa4p=\n\xd7\xa3\xe0?'
p1106
tp1107
Rp1108
aF0.007822990417480469
aI66
aS'kernel = 1 degree'
p1109
aas.