(dp0
S'vehicle'
p1
(lp2
(lp3
cnumpy.core.multiarray
scalar
p4
(cnumpy
dtype
p5
(S'f8'
p6
I0
I1
tp7
Rp8
(I3
S'<'
p9
NNNI-1
I-1
I0
tp10
bS'}g\xa3\xbe\xb3Q\xef?'
p11
tp12
Rp13
ag4
(g8
S'\xf4\xa3\x1f\xfd\xe8G\xef?'
p14
tp15
Rp16
aF0.15438508987426758
aI188
aS'kernel = 1 degree'
p17
ag4
(g8
S']AL\xae &\xef?'
p18
tp19
Rp20
ag4
(g8
S'\xd3_\xcfU,\x1b\xef?'
p21
tp22
Rp23
aF0.11002016067504883
aI188
aS'kernel = 1 degree'
p24
ag4
(g8
S']AL\xae &\xef?'
p25
tp26
Rp27
ag4
(g8
S'\xd3_\xcfU,\x1b\xef?'
p28
tp29
Rp30
aF0.0990900993347168
aI188
aS'kernel = 1 degree'
p31
aa(lp32
g4
(g8
S']AL\xae &\xef?'
p33
tp34
Rp35
ag4
(g8
S'&\x87\xb8\xca\x140\xef?'
p36
tp37
Rp38
aF0.14328789710998535
aI188
aS'kernel = 1 degree'
p39
ag4
(g8
S'}g\xa3\xbe\xb3Q\xef?'
p40
tp41
Rp42
ag4
(g8
S'\xd6\x87\xc6\xfa\xd0X\xef?'
p43
tp44
Rp45
aF0.10254788398742676
aI188
aS'kernel = 1 degree'
p46
ag4
(g8
S'r\x051\xb9\x82\x98\xec?'
p47
tp48
Rp49
ag4
(g8
S'\xf1\x8d(0\xe9\xd4\xec?'
p50
tp51
Rp52
aF0.0965878963470459
aI188
aS'kernel = 1 degree'
p53
aa(lp54
g4
(g8
S'<\x1b\xf5\x9d\x8d\xfa\xee?'
p55
tp56
Rp57
ag4
(g8
S'\xb7m\xdb\xb6m\xdb\xee?'
p58
tp59
Rp60
aF0.13099193572998047
aI188
aS'kernel = 1 degree'
p61
ag4
(g8
S'\xda\xa8\xefl\xd4w\xee?'
p62
tp63
Rp64
ag4
(g8
S'\x9a\xed\x13\xd5\x83F\xee?'
p65
tp66
Rp67
aF0.11370396614074707
aI188
aS'kernel = 1 degree'
p68
ag4
(g8
S'<\x1b\xf5\x9d\x8d\xfa\xee?'
p69
tp70
Rp71
ag4
(g8
S'\xdf\xde\xde\xde\xde\xde\xee?'
p72
tp73
Rp74
aF0.11879706382751465
aI188
aS'kernel = 1 degree'
p75
aa(lp76
g4
(g8
S'<\x1b\xf5\x9d\x8d\xfa\xee?'
p77
tp78
Rp79
ag4
(g8
S'\x00\x00\x00\x00\x00\x00\xef?'
p80
tp81
Rp82
aF0.10793519020080566
aI188
aS'kernel = 1 degree'
p83
ag4
(g8
S']AL\xae &\xef?'
p84
tp85
Rp86
ag4
(g8
S'aw&\xa3\xc5+\xef?'
p87
tp88
Rp89
aF0.11782193183898926
aI188
aS'kernel = 1 degree'
p90
ag4
(g8
S'<\x1b\xf5\x9d\x8d\xfa\xee?'
p91
tp92
Rp93
ag4
(g8
S'`\\\xfd\xa0\xa3\x02\xef?'
p94
tp95
Rp96
aF0.10363197326660156
aI188
aS'kernel = 1 degree'
p97
aa(lp98
g4
(g8
S'\xb9\x82\x98\\AL\xee?'
p99
tp100
Rp101
ag4
(g8
S'H\x1ey\xe4\x91G\xee?'
p102
tp103
Rp104
aF0.14058589935302734
aI188
aS'kernel = 1 degree'
p105
ag4
(g8
S'6\xea;\x1b\xf5\x9d\xed?'
p106
tp107
Rp108
ag4
(g8
S'Y\xc8B\x16\xb2\x90\xed?'
p109
tp110
Rp111
aF0.11912107467651367
aI188
aS'kernel = 1 degree'
p112
ag4
(g8
S'x6\xea;\x1b\xf5\xed?'
p113
tp114
Rp115
ag4
(g8
S'\xdf\xf4\xa67\xbd\xe9\xed?'
p116
tp117
Rp118
aF0.13378286361694336
aI188
aS'kernel = 1 degree'
p119
aa(lp120
g4
(g8
S'<\x1b\xf5\x9d\x8d\xfa\xee?'
p121
tp122
Rp123
ag4
(g8
S'FX\xeei\x84\xe5\xee?'
p124
tp125
Rp126
aF0.13277602195739746
aI188
aS'kernel = 1 degree'
p127
ag4
(g8
S']AL\xae &\xef?'
p128
tp129
Rp130
ag4
(g8
S'\xc06\xa7\xab<\x13\xef?'
p131
tp132
Rp133
aF0.11603116989135742
aI188
aS'kernel = 1 degree'
p134
ag4
(g8
S'6\xea;\x1b\xf5\x9d\xed?'
p135
tp136
Rp137
ag4
(g8
S']]]]]]\xed?'
p138
tp139
Rp140
aF0.1293189525604248
aI188
aS'kernel = 1 degree'
p141
aa(lp142
g4
(g8
S'}g\xa3\xbe\xb3Q\xef?'
p143
tp144
Rp145
ag4
(g8
S'F\x17]t\xd1E\xef?'
p146
tp147
Rp148
aF0.11511397361755371
aI188
aS'kernel = 1 degree'
p149
ag4
(g8
S'<\x1b\xf5\x9d\x8d\xfa\xee?'
p150
tp151
Rp152
ag4
(g8
S'\xb8#\xee\x88;\xe2\xee?'
p153
tp154
Rp155
aF0.10322999954223633
aI188
aS'kernel = 1 degree'
p156
ag4
(g8
S'6\xea;\x1b\xf5\x9d\xed?'
p157
tp158
Rp159
ag4
(g8
S'YS\xd6\x945e\xed?'
p160
tp161
Rp162
aF0.14555597305297852
aI188
aS'kernel = 1 degree'
p163
aa(lp164
g4
(g8
S'<\x1b\xf5\x9d\x8d\xfa\xee?'
p165
tp166
Rp167
ag4
(g8
S'\x0f\x0f\x0f\x0f\x0f\x0f\xef?'
p168
tp169
Rp170
aF0.13507509231567383
aI188
aS'kernel = 1 degree'
p171
ag4
(g8
S'\xda\xa8\xefl\xd4w\xee?'
p172
tp173
Rp174
ag4
(g8
S'\x98\x9e\x85\xe9Y\x98\xee?'
p175
tp176
Rp177
aF0.10024809837341309
aI188
aS'kernel = 1 degree'
p178
ag4
(g8
S'\x1b\xf5\x9d\x8d\xfa\xce\xee?'
p179
tp180
Rp181
ag4
(g8
S'\xa5\x8e\x10\xdb\xb4\xe2\xee?'
p182
tp183
Rp184
aF0.10030913352966309
aI188
aS'kernel = 1 degree'
p185
aa(lp186
g4
(g8
S'\x1b\xf5\x9d\x8d\xfa\xce\xee?'
p187
tp188
Rp189
ag4
(g8
S'h\xf0\x9b\xe8\xe9\xdc\xee?'
p190
tp191
Rp192
aF0.1101369857788086
aI188
aS'kernel = 1 degree'
p193
ag4
(g8
S'\x1b\xf5\x9d\x8d\xfa\xce\xee?'
p194
tp195
Rp196
ag4
(g8
S'"\xa7\x02~\xe1\xd6\xee?'
p197
tp198
Rp199
aF0.1231851577758789
aI188
aS'kernel = 1 degree'
p200
ag4
(g8
S'6\xea;\x1b\xf5\x9d\xed?'
p201
tp202
Rp203
ag4
(g8
S'F\xda\xb1\x02a\xa4\xed?'
p204
tp205
Rp206
aF0.1007699966430664
aI188
aS'kernel = 1 degree'
p207
aa(lp208
g4
(g8
S'\xbf\xb3Q\xdf\xd9\xa8\xef?'
p209
tp210
Rp211
ag4
(g8
S'{\xd3\x9b\xde\xf4\xa6\xef?'
p212
tp213
Rp214
aF0.08238601684570312
aI188
aS'kernel = 1 degree'
p215
ag4
(g8
S'\x9e\x8d\xfa\xceF}\xef?'
p216
tp217
Rp218
ag4
(g8
S'.\x19\x82u\xb4y\xef?'
p219
tp220
Rp221
aF0.12303400039672852
aI188
aS'kernel = 1 degree'
p222
ag4
(g8
S'\xda\xa8\xefl\xd4w\xee?'
p223
tp224
Rp225
ag4
(g8
S'\x13Fu\x9a\x1cd\xee?'
p226
tp227
Rp228
aF0.10611200332641602
aI188
aS'kernel = 1 degree'
p229
aa(lp230
g4
(g8
S'<\x1b\xf5\x9d\x8d\xfa\xee?'
p231
tp232
Rp233
ag4
(g8
S'_\\\xfd\xa0\xa3\x02\xef?'
p234
tp235
Rp236
aF0.11142802238464355
aI188
aS'kernel = 1 degree'
p237
ag4
(g8
S'}g\xa3\xbe\xb3Q\xef?'
p238
tp239
Rp240
ag4
(g8
S'@\xe8\xa8\xc0\x17W\xef?'
p241
tp242
Rp243
aF0.13793110847473145
aI188
aS'kernel = 1 degree'
p244
ag4
(g8
S'\x93+\x88\xc9\x15\xc4\xec?'
p245
tp246
Rp247
ag4
(g8
S'\x87\xcc\x1d2w\xc8\xec?'
p248
tp249
Rp250
aF0.11988592147827148
aI188
aS'kernel = 0 degree'
p251
aa(lp252
g4
(g8
S'<\x1b\xf5\x9d\x8d\xfa\xee?'
p253
tp254
Rp255
ag4
(g8
S'\x1f\xef\xf1\x1e\xef\xf1\xee?'
p256
tp257
Rp258
aF0.12926888465881348
aI188
aS'kernel = 1 degree'
p259
ag4
(g8
S'\xda\xa8\xefl\xd4w\xee?'
p260
tp261
Rp262
ag4
(g8
S'\xf2!H\xb9\xa9h\xee?'
p263
tp264
Rp265
aF0.0982658863067627
aI188
aS'kernel = 1 degree'
p266
ag4
(g8
S'\x16\xc4\xe4\nbr\xed?'
p267
tp268
Rp269
ag4
(g8
S'"fs\xe9P\x83\xed?'
p270
tp271
Rp272
aF0.12459301948547363
aI188
aS'kernel = 0 degree'
p273
aa(lp274
g4
(g8
S'\x1b\xf5\x9d\x8d\xfa\xce\xee?'
p275
tp276
Rp277
ag4
(g8
S'\xce\x9e\xe4\xfbX\xcd\xee?'
p278
tp279
Rp280
aF0.10047602653503418
aI188
aS'kernel = 1 degree'
p281
ag4
(g8
S'x6\xea;\x1b\xf5\xed?'
p282
tp283
Rp284
ag4
(g8
S'=\xde\xe3=\xde\xe3\xed?'
p285
tp286
Rp287
aF0.07501912117004395
aI188
aS'kernel = 1 degree'
p288
ag4
(g8
S'\x16\xc4\xe4\nbr\xed?'
p289
tp290
Rp291
ag4
(g8
S'\x938x\xdf\x1aY\xed?'
p292
tp293
Rp294
aF0.1228787899017334
aI188
aS'kernel = 1 degree'
p295
aa(lp296
g4
(g8
S'\xbf\xb3Q\xdf\xd9\xa8\xef?'
p297
tp298
Rp299
ag4
(g8
S'{\xd3\x9b\xde\xf4\xa6\xef?'
p300
tp301
Rp302
aF0.10950493812561035
aI188
aS'kernel = 1 degree'
p303
ag4
(g8
S']AL\xae &\xef?'
p304
tp305
Rp306
ag4
(g8
S"t\xf2\xd1\xc9G'\xef?"
p307
tp308
Rp309
aF0.11435198783874512
aI188
aS'kernel = 1 degree'
p310
ag4
(g8
S'\xda\xa8\xefl\xd4w\xee?'
p311
tp312
Rp313
ag4
(g8
S'\x18\xe7\xa1cxq\xee?'
p314
tp315
Rp316
aF0.12225604057312012
aI188
aS'kernel = 1 degree'
p317
aa(lp318
g4
(g8
S'\x9e\x8d\xfa\xceF}\xef?'
p319
tp320
Rp321
ag4
(g8
S'\x04\xf7\x11\xdcGp\xef?'
p322
tp323
Rp324
aF0.10983991622924805
aI188
aS'kernel = 1 degree'
p325
ag4
(g8
S'<\x1b\xf5\x9d\x8d\xfa\xee?'
p326
tp327
Rp328
ag4
(g8
S'GX\xeei\x84\xe5\xee?'
p329
tp330
Rp331
aF0.12715792655944824
aI188
aS'kernel = 1 degree'
p332
ag4
(g8
S'\xda\xa8\xefl\xd4w\xee?'
p333
tp334
Rp335
ag4
(g8
S'\x9a\xed\x13\xd5\x83F\xee?'
p336
tp337
Rp338
aF0.10730314254760742
aI188
aS'kernel = 1 degree'
p339
aa(lp340
g4
(g8
S'\x1b\xf5\x9d\x8d\xfa\xce\xee?'
p341
tp342
Rp343
ag4
(g8
S'\x99<\x01\xd1\xf9\xea\xee?'
p344
tp345
Rp346
aF0.12892508506774902
aI188
aS'kernel = 1 degree'
p347
ag4
(g8
S'x6\xea;\x1b\xf5\xed?'
p348
tp349
Rp350
ag4
(g8
S'\x1f\x1e\x1e\x1e\x1e\x1e\xee?'
p351
tp352
Rp353
aF0.11060595512390137
aI188
aS'kernel = 1 degree'
p354
ag4
(g8
S'\x16\xc4\xe4\nbr\xed?'
p355
tp356
Rp357
ag4
(g8
S'N\x06\x91\x07\xae\xa2\xed?'
p358
tp359
Rp360
aF0.12262916564941406
aI188
aS'kernel = 1 degree'
p361
aa(lp362
g4
(g8
S'\x9e\x8d\xfa\xceF}\xef?'
p363
tp364
Rp365
ag4
(g8
S'\xad\xb3/\xa2Zg\xef?'
p366
tp367
Rp368
aF0.11735296249389648
aI188
aS'kernel = 1 degree'
p369
ag4
(g8
S'\xda\xa8\xefl\xd4w\xee?'
p370
tp371
Rp372
ag4
(g8
S'A\x9e\x12\xe4)A\xee?'
p373
tp374
Rp375
aF0.11189103126525879
aI188
aS'kernel = 1 degree'
p376
ag4
(g8
S'\xb9\x82\x98\\AL\xee?'
p377
tp378
Rp379
ag4
(g8
S'\x01\x00\x00\x00\x00\x00\xee?'
p380
tp381
Rp382
aF0.1387178897857666
aI188
aS'kernel = 1 degree'
p383
aa(lp384
g4
(g8
S'}g\xa3\xbe\xb3Q\xef?'
p385
tp386
Rp387
ag4
(g8
S'\xf4\xa3\x1f\xfd\xe8G\xef?'
p388
tp389
Rp390
aF0.08984994888305664
aI188
aS'kernel = 1 degree'
p391
ag4
(g8
S'<\x1b\xf5\x9d\x8d\xfa\xee?'
p392
tp393
Rp394
ag4
(g8
S'\xe9\xa2\x8b.\xba\xe8\xee?'
p395
tp396
Rp397
aF0.08783793449401855
aI188
aS'kernel = 1 degree'
p398
ag4
(g8
S'\x1b\xf5\x9d\x8d\xfa\xce\xee?'
p399
tp400
Rp401
ag4
(g8
S'\xb8\x1e\x85\xebQ\xb8\xee?'
p402
tp403
Rp404
aF0.10492491722106934
aI188
aS'kernel = 1 degree'
p405
aa(lp406
g4
(g8
S']AL\xae &\xef?'
p407
tp408
Rp409
ag4
(g8
S'\xd0\xdb\xa4\xbb\x8c)\xef?'
p410
tp411
Rp412
aF0.09641695022583008
aI188
aS'kernel = 1 degree'
p413
ag4
(g8
S'\xb9\x82\x98\\AL\xee?'
p414
tp415
Rp416
ag4
(g8
S'\xba\x82\x98\\AL\xee?'
p417
tp418
Rp419
aF0.08472204208374023
aI188
aS'kernel = 1 degree'
p420
ag4
(g8
S'<\x1b\xf5\x9d\x8d\xfa\xee?'
p421
tp422
Rp423
ag4
(g8
S'\xd5\xef\xb9%N\xfd\xee?'
p424
tp425
Rp426
aF0.10084104537963867
aI188
aS'kernel = 1 degree'
p427
aa(lp428
g4
(g8
S'<\x1b\xf5\x9d\x8d\xfa\xee?'
p429
tp430
Rp431
ag4
(g8
S'\xef\xee\xee\xee\xee\xee\xee?'
p432
tp433
Rp434
aF0.08775496482849121
aI188
aS'kernel = 1 degree'
p435
ag4
(g8
S'\xf5\x9d\x8d\xfa\xceF\xed?'
p436
tp437
Rp438
ag4
(g8
S"~\xd2'}\xd2'\xed?"
p439
tp440
Rp441
aF0.10071110725402832
aI188
aS'kernel = 0 degree'
p442
ag4
(g8
S'\x93+\x88\xc9\x15\xc4\xec?'
p443
tp444
Rp445
ag4
(g8
S'\xcf\xf47\xe8v\xad\xec?'
p446
tp447
Rp448
aF0.09437704086303711
aI188
aS'kernel = 1 degree'
p449
aa(lp450
g4
(g8
S']AL\xae &\xef?'
p451
tp452
Rp453
ag4
(g8
S"t\xf2\xd1\xc9G'\xef?"
p454
tp455
Rp456
aF0.10597705841064453
aI188
aS'kernel = 1 degree'
p457
ag4
(g8
S'}g\xa3\xbe\xb3Q\xef?'
p458
tp459
Rp460
ag4
(g8
S'9\xf5{n\x89S\xef?'
p461
tp462
Rp463
aF0.11081600189208984
aI188
aS'kernel = 1 degree'
p464
ag4
(g8
S'\x1b\xf5\x9d\x8d\xfa\xce\xee?'
p465
tp466
Rp467
ag4
(g8
S'#\x9a\xb3\x06\xc5\xd3\xee?'
p468
tp469
Rp470
aF0.08202981948852539
aI188
aS'kernel = 1 degree'
p471
aa(lp472
g4
(g8
S'\xda\xa8\xefl\xd4w\xee?'
p473
tp474
Rp475
ag4
(g8
S'\x94n_Y\xbdK\xee?'
p476
tp477
Rp478
aF0.07719802856445312
aI188
aS'kernel = 1 degree'
p479
ag4
(g8
S'R\xdf\xd9\xa8\xefl\xec?'
p480
tp481
Rp482
ag4
(g8
S'\xed\x1b\xd6\xbea\xed\xeb?'
p483
tp484
Rp485
aF0.0998539924621582
aI188
aS'kernel = 0 degree'
p486
ag4
(g8
S'\xda\xa8\xefl\xd4w\xee?'
p487
tp488
Rp489
ag4
(g8
S'\x0c\xe55\x94\xd7P\xee?'
p490
tp491
Rp492
aF0.11730504035949707
aI188
aS'kernel = 1 degree'
p493
aa(lp494
g4
(g8
S'}g\xa3\xbe\xb3Q\xef?'
p495
tp496
Rp497
ag4
(g8
S'}g\xa3\xbe\xb3Q\xef?'
p498
tp499
Rp500
aF0.09099507331848145
aI188
aS'kernel = 1 degree'
p501
ag4
(g8
S'\xfb\xceF}g\xa3\xee?'
p502
tp503
Rp504
ag4
(g8
S'\xa0~\xfa\xe9\xa7\x9f\xee?'
p505
tp506
Rp507
aF0.10496091842651367
aI188
aS'kernel = 1 degree'
p508
ag4
(g8
S'\xfb\xceF}g\xa3\xee?'
p509
tp510
Rp511
ag4
(g8
S'\xa0~\xfa\xe9\xa7\x9f\xee?'
p512
tp513
Rp514
aF0.07763290405273438
aI188
aS'kernel = 1 degree'
p515
aa(lp516
g4
(g8
S'}g\xa3\xbe\xb3Q\xef?'
p517
tp518
Rp519
ag4
(g8
S'\xf5\xa67\xbd\xe9M\xef?'
p520
tp521
Rp522
aF0.10535812377929688
aI188
aS'kernel = 1 degree'
p523
ag4
(g8
S'\xbf\xb3Q\xdf\xd9\xa8\xef?'
p524
tp525
Rp526
ag4
(g8
S'z\xd3\x9b\xde\xf4\xa6\xef?'
p527
tp528
Rp529
aF0.09043622016906738
aI188
aS'kernel = 1 degree'
p530
ag4
(g8
S'\x9e\x8d\xfa\xceF}\xef?'
p531
tp532
Rp533
ag4
(g8
S'P\x0b\x18\x938x\xef?'
p534
tp535
Rp536
aF0.10277104377746582
aI188
aS'kernel = 1 degree'
p537
aa(lp538
g4
(g8
S'<\x1b\xf5\x9d\x8d\xfa\xee?'
p539
tp540
Rp541
ag4
(g8
S'pz\xd3\x9b\xde\xf4\xee?'
p542
tp543
Rp544
aF0.09033203125
aI188
aS'kernel = 1 degree'
p545
ag4
(g8
S'\x1b\xf5\x9d\x8d\xfa\xce\xee?'
p546
tp547
Rp548
ag4
(g8
S'\xa1\xec}M\x08\xca\xee?'
p549
tp550
Rp551
aF0.08032107353210449
aI188
aS'kernel = 1 degree'
p552
ag4
(g8
S'W\x10\x93+\x88\xc9\xed?'
p553
tp554
Rp555
ag4
(g8
S'^\x86\xbd\xd2\x9f\xb3\xed?'
p556
tp557
Rp558
aF0.09592914581298828
aI188
aS'kernel = 1 degree'
p559
aa(lp560
g4
(g8
S'\x1b\xf5\x9d\x8d\xfa\xce\xee?'
p561
tp562
Rp563
ag4
(g8
S'\x9f\xed\xd9\x9e\xed\xd9\xee?'
p564
tp565
Rp566
aF0.08635711669921875
aI188
aS'kernel = 1 degree'
p567
ag4
(g8
S'\xda\xa8\xefl\xd4w\xee?'
p568
tp569
Rp570
ag4
(g8
S'Xm\xfd\xed\x81\x8d\xee?'
p571
tp572
Rp573
aF0.06807303428649902
aI188
aS'kernel = 1 degree'
p574
ag4
(g8
S'<\x1b\xf5\x9d\x8d\xfa\xee?'
p575
tp576
Rp577
ag4
(g8
S'\x08\x1f|\xf0\xc1\x07\xef?'
p578
tp579
Rp580
aF0.07586979866027832
aI188
aS'kernel = 1 degree'
p581
aa(lp582
g4
(g8
S'\xfb\xceF}g\xa3\xee?'
p583
tp584
Rp585
ag4
(g8
S'\xbf\xbe\xbe\xbe\xbe\xbe\xee?'
p586
tp587
Rp588
aF0.11532306671142578
aI188
aS'kernel = 1 degree'
p589
ag4
(g8
S'<\x1b\xf5\x9d\x8d\xfa\xee?'
p590
tp591
Rp592
ag4
(g8
S'\x10\x0f\x0f\x0f\x0f\x0f\xef?'
p593
tp594
Rp595
aF0.07980203628540039
aI188
aS'kernel = 1 degree'
p596
ag4
(g8
S'\x93+\x88\xc9\x15\xc4\xec?'
p597
tp598
Rp599
ag4
(g8
S'0\x83Q\xc0\xa1\xf9\xec?'
p600
tp601
Rp602
aF0.08399009704589844
aI188
aS'kernel = 1 degree'
p603
aa(lp604
g4
(g8
S'x6\xea;\x1b\xf5\xed?'
p605
tp606
Rp607
ag4
(g8
S'\x83\x97S\xf0r\n\xee?'
p608
tp609
Rp610
aF0.08643698692321777
aI188
aS'kernel = 1 degree'
p611
ag4
(g8
S'<\x1b\xf5\x9d\x8d\xfa\xee?'
p612
tp613
Rp614
ag4
(g8
S'\x0b\xd7\xa3p=\n\xef?'
p615
tp616
Rp617
aF0.09689998626708984
aI188
aS'kernel = 1 degree'
p618
ag4
(g8
S'6\xea;\x1b\xf5\x9d\xed?'
p619
tp620
Rp621
ag4
(g8
S'\xde,O"\xd3\xb0\xed?'
p622
tp623
Rp624
aF0.11365914344787598
aI188
aS'kernel = 1 degree'
p625
aa(lp626
g4
(g8
S'<\x1b\xf5\x9d\x8d\xfa\xee?'
p627
tp628
Rp629
ag4
(g8
S'pz\xd3\x9b\xde\xf4\xee?'
p630
tp631
Rp632
aF0.11939692497253418
aI188
aS'kernel = 1 degree'
p633
ag4
(g8
S'\xb9\x82\x98\\AL\xee?'
p634
tp635
Rp636
ag4
(g8
S'e!\x0bY\xc8B\xee?'
p637
tp638
Rp639
aF0.0950160026550293
aI188
aS'kernel = 1 degree'
p640
ag4
(g8
S'\x93+\x88\xc9\x15\xc4\xec?'
p641
tp642
Rp643
ag4
(g8
S'\x1c\xc7q\x1c\xc7q\xec?'
p644
tp645
Rp646
aF0.0925760269165039
aI188
aS'kernel = 1 degree'
p647
aa(lp648
g4
(g8
S'}g\xa3\xbe\xb3Q\xef?'
p649
tp650
Rp651
ag4
(g8
S':\xa4&\x18oe\xef?'
p652
tp653
Rp654
aF0.08547806739807129
aI188
aS'kernel = 1 degree'
p655
ag4
(g8
S'\xb9\x82\x98\\AL\xee?'
p656
tp657
Rp658
ag4
(g8
S"c'vb'v\xee?"
p659
tp660
Rp661
aF0.11728501319885254
aI188
aS'kernel = 1 degree'
p662
ag4
(g8
S'\xfb\xceF}g\xa3\xee?'
p663
tp664
Rp665
ag4
(g8
S'tHM0\xde\xca\xee?'
p666
tp667
Rp668
aF0.09721016883850098
aI188
aS'kernel = 1 degree'
p669
aa(lp670
g4
(g8
S'x6\xea;\x1b\xf5\xed?'
p671
tp672
Rp673
ag4
(g8
S'\x83\x97S\xf0r\n\xee?'
p674
tp675
Rp676
aF0.08764886856079102
aI188
aS'kernel = 1 degree'
p677
ag4
(g8
S'\x99\\AL\xae \xee?'
p678
tp679
Rp680
ag4
(g8
S'\xed\xc2b$\x946\xee?'
p681
tp682
Rp683
aF0.07775497436523438
aI188
aS'kernel = 1 degree'
p684
ag4
(g8
S'\xfb\xceF}g\xa3\xee?'
p685
tp686
Rp687
ag4
(g8
S'\x7f\xd0Q\x81/\xae\xee?'
p688
tp689
Rp690
aF0.0907750129699707
aI188
aS'kernel = 1 degree'
p691
aa(lp692
g4
(g8
S'}g\xa3\xbe\xb3Q\xef?'
p693
tp694
Rp695
ag4
(g8
S':\xa4&\x18oe\xef?'
p696
tp697
Rp698
aF0.1252000331878662
aI188
aS'kernel = 1 degree'
p699
ag4
(g8
S'\x99\\AL\xae \xee?'
p700
tp701
Rp702
ag4
(g8
S'`\xeb\n\xcd\xedT\xee?'
p703
tp704
Rp705
aF0.09045791625976562
aI188
aS'kernel = 1 degree'
p706
ag4
(g8
S'\x16\xc4\xe4\nbr\xed?'
p707
tp708
Rp709
ag4
(g8
S'\xa8]\x89\xda\x95\xa8\xed?'
p710
tp711
Rp712
aF0.10632801055908203
aI188
aS'kernel = 1 degree'
p713
aa(lp714
g4
(g8
S'}g\xa3\xbe\xb3Q\xef?'
p715
tp716
Rp717
ag4
(g8
S'}g\xa3\xbe\xb3Q\xef?'
p718
tp719
Rp720
aF0.08892703056335449
aI188
aS'kernel = 1 degree'
p721
ag4
(g8
S']AL\xae &\xef?'
p722
tp723
Rp724
ag4
(g8
S"t\xf2\xd1\xc9G'\xef?"
p725
tp726
Rp727
aF0.0798192024230957
aI188
aS'kernel = 1 degree'
p728
ag4
(g8
S'\x1b\xf5\x9d\x8d\xfa\xce\xee?'
p729
tp730
Rp731
ag4
(g8
S'\t\xed%\xb4\x97\xd0\xee?'
p732
tp733
Rp734
aF0.07102608680725098
aI188
aS'kernel = 1 degree'
p735
aa(lp736
g4
(g8
S'}g\xa3\xbe\xb3Q\xef?'
p737
tp738
Rp739
ag4
(g8
S'\xf4\xa3\x1f\xfd\xe8G\xef?'
p740
tp741
Rp742
aF0.07383203506469727
aI188
aS'kernel = 1 degree'
p743
ag4
(g8
S'}g\xa3\xbe\xb3Q\xef?'
p744
tp745
Rp746
ag4
(g8
S'F\x17]t\xd1E\xef?'
p747
tp748
Rp749
aF0.09345889091491699
aI188
aS'kernel = 1 degree'
p750
ag4
(g8
S'\xb9\x82\x98\\AL\xee?'
p751
tp752
Rp753
ag4
(g8
S'.\xba\xe8\xa2\x8b.\xee?'
p754
tp755
Rp756
aF0.0749208927154541
aI188
aS'kernel = 1 degree'
p757
aa(lp758
g4
(g8
S'}g\xa3\xbe\xb3Q\xef?'
p759
tp760
Rp761
ag4
(g8
S'}g\xa3\xbe\xb3Q\xef?'
p762
tp763
Rp764
aF0.08470511436462402
aI188
aS'kernel = 1 degree'
p765
ag4
(g8
S']AL\xae &\xef?'
p766
tp767
Rp768
ag4
(g8
S'$\xdf\xc7j\xf6$\xef?'
p769
tp770
Rp771
aF0.09023904800415039
aI188
aS'kernel = 1 degree'
p772
ag4
(g8
S'\xf5\x9d\x8d\xfa\xceF\xed?'
p773
tp774
Rp775
ag4
(g8
S'\xd3\x9b\xde\xf4\xa67\xed?'
p776
tp777
Rp778
aF0.09098601341247559
aI188
aS'kernel = 1 degree'
p779
aa(lp780
g4
(g8
S'}g\xa3\xbe\xb3Q\xef?'
p781
tp782
Rp783
ag4
(g8
S'F\x17]t\xd1E\xef?'
p784
tp785
Rp786
aF0.09171104431152344
aI188
aS'kernel = 1 degree'
p787
ag4
(g8
S'<\x1b\xf5\x9d\x8d\xfa\xee?'
p788
tp789
Rp790
ag4
(g8
S'\xf0u\xaf{\xdd\xeb\xee?'
p791
tp792
Rp793
aF0.08381915092468262
aI188
aS'kernel = 1 degree'
p794
ag4
(g8
S'x6\xea;\x1b\xf5\xed?'
p795
tp796
Rp797
ag4
(g8
S'\xdd\xdd\xdd\xdd\xdd\xdd\xed?'
p798
tp799
Rp800
aF0.10767984390258789
aI188
aS'kernel = 1 degree'
p801
aa(lp802
g4
(g8
S']AL\xae &\xef?'
p803
tp804
Rp805
ag4
(g8
S'&\x87\xb8\xca\x140\xef?'
p806
tp807
Rp808
aF0.08838891983032227
aI188
aS'kernel = 1 degree'
p809
ag4
(g8
S'<\x1b\xf5\x9d\x8d\xfa\xee?'
p810
tp811
Rp812
ag4
(g8
S'\x08\x1f|\xf0\xc1\x07\xef?'
p813
tp814
Rp815
aF0.08136701583862305
aI188
aS'kernel = 1 degree'
p816
ag4
(g8
S'x6\xea;\x1b\xf5\xed?'
p817
tp818
Rp819
ag4
(g8
S'\x91\xbb~\xb6X\x19\xee?'
p820
tp821
Rp822
aF0.09048795700073242
aI188
aS'kernel = 1 degree'
p823
aa(lp824
g4
(g8
S'}g\xa3\xbe\xb3Q\xef?'
p825
tp826
Rp827
ag4
(g8
S'\xf4\xa3\x1f\xfd\xe8G\xef?'
p828
tp829
Rp830
aF0.09625887870788574
aI188
aS'kernel = 1 degree'
p831
ag4
(g8
S'}g\xa3\xbe\xb3Q\xef?'
p832
tp833
Rp834
ag4
(g8
S'\xf4\xa3\x1f\xfd\xe8G\xef?'
p835
tp836
Rp837
aF0.0790259838104248
aI188
aS'kernel = 1 degree'
p838
ag4
(g8
S'}g\xa3\xbe\xb3Q\xef?'
p839
tp840
Rp841
ag4
(g8
S'\xf4\xa3\x1f\xfd\xe8G\xef?'
p842
tp843
Rp844
aF0.07980203628540039
aI188
aS'kernel = 1 degree'
p845
aa(lp846
g4
(g8
S'\x1b\xf5\x9d\x8d\xfa\xce\xee?'
p847
tp848
Rp849
ag4
(g8
S'\t\xa9\x96u\xa0\xed\xee?'
p850
tp851
Rp852
aF0.08233308792114258
aI188
aS'kernel = 1 degree'
p853
ag4
(g8
S'\xbf\xb3Q\xdf\xd9\xa8\xef?'
p854
tp855
Rp856
ag4
(g8
S'\xb0\xaf\xaf\xaf\xaf\xaf\xef?'
p857
tp858
Rp859
aF0.07923007011413574
aI188
aS'kernel = 1 degree'
p860
ag4
(g8
S'\x16\xc4\xe4\nbr\xed?'
p861
tp862
Rp863
ag4
(g8
S'q\x95)`>\x90\xed?'
p864
tp865
Rp866
aF0.08775091171264648
aI188
aS'kernel = 1 degree'
p867
aa(lp868
g4
(g8
S'\xbf\xb3Q\xdf\xd9\xa8\xef?'
p869
tp870
Rp871
ag4
(g8
S'`\xfa\xa5_\xfa\xa5\xef?'
p872
tp873
Rp874
aF0.10015511512756348
aI188
aS'kernel = 1 degree'
p875
ag4
(g8
S'\xf5\x9d\x8d\xfa\xceF\xed?'
p876
tp877
Rp878
ag4
(g8
S'?\xfd\xf4\xd3O?\xed?'
p879
tp880
Rp881
aF0.05438518524169922
aI188
aS'kernel = 0 degree'
p882
ag4
(g8
S'\xb9\x82\x98\\AL\xee?'
p883
tp884
Rp885
ag4
(g8
S'\x8e\xe38\x8e\xe38\xee?'
p886
tp887
Rp888
aF0.09615921974182129
aI188
aS'kernel = 1 degree'
p889
aa(lp890
g4
(g8
S']AL\xae &\xef?'
p891
tp892
Rp893
ag4
(g8
S'\xdb\x03\x1b\xbd+2\xef?'
p894
tp895
Rp896
aF0.0801088809967041
aI188
aS'kernel = 1 degree'
p897
ag4
(g8
S'\xbf\xb3Q\xdf\xd9\xa8\xef?'
p898
tp899
Rp900
ag4
(g8
S'\xaeG\xe1z\x14\xae\xef?'
p901
tp902
Rp903
aF0.09908890724182129
aI188
aS'kernel = 1 degree'
p904
ag4
(g8
S'x6\xea;\x1b\xf5\xed?'
p905
tp906
Rp907
ag4
(g8
S'\x15\xaeG\xe1z\x14\xee?'
p908
tp909
Rp910
aF0.0859520435333252
aI188
aS'kernel = 1 degree'
p911
aa(lp912
g4
(g8
S'\xfb\xceF}g\xa3\xee?'
p913
tp914
Rp915
ag4
(g8
S'\xe9Moz\xd3\x9b\xee?'
p916
tp917
Rp918
aF0.07197785377502441
aI188
aS'kernel = 1 degree'
p919
ag4
(g8
S'\x99\\AL\xae \xee?'
p920
tp921
Rp922
ag4
(g8
S"'\xd4\x02\xc6$\x0e\xee?"
p923
tp924
Rp925
aF0.07721304893493652
aI188
aS'kernel = 1 degree'
p926
ag4
(g8
S'\xd4w6\xea;\x1b\xed?'
p927
tp928
Rp929
ag4
(g8
S'\x8e \xd2z\x01\xdb\xec?'
p930
tp931
Rp932
aF0.08760190010070801
aI188
aS'kernel = 0 degree'
p933
aa(lp934
g4
(g8
S'<\x1b\xf5\x9d\x8d\xfa\xee?'
p935
tp936
Rp937
ag4
(g8
S'pz\xd3\x9b\xde\xf4\xee?'
p938
tp939
Rp940
aF0.09047389030456543
aI188
aS'kernel = 1 degree'
p941
ag4
(g8
S'x6\xea;\x1b\xf5\xed?'
p942
tp943
Rp944
ag4
(g8
S'=\xde\xe3=\xde\xe3\xed?'
p945
tp946
Rp947
aF0.08605504035949707
aI188
aS'kernel = 1 degree'
p948
ag4
(g8
S'x6\xea;\x1b\xf5\xed?'
p949
tp950
Rp951
ag4
(g8
S'\xef\xbd\xf7\xde{\xef\xed?'
p952
tp953
Rp954
aF0.08221292495727539
aI188
aS'kernel = 1 degree'
p955
aa(lp956
g4
(g8
S'\x9e\x8d\xfa\xceF}\xef?'
p957
tp958
Rp959
ag4
(g8
S'.\x19\x82u\xb4y\xef?'
p960
tp961
Rp962
aF0.09176087379455566
aI188
aS'kernel = 1 degree'
p963
ag4
(g8
S']AL\xae &\xef?'
p964
tp965
Rp966
ag4
(g8
S'\xa3\xd4\xd8\xc3, \xef?'
p967
tp968
Rp969
aF0.03336000442504883
aI188
aS'kernel = 1 degree'
p970
ag4
(g8
S'\x16\xc4\xe4\nbr\xed?'
p971
tp972
Rp973
ag4
(g8
S']\xd7u]\xd7u\xed?'
p974
tp975
Rp976
aF0.07715487480163574
aI188
aS'kernel = 0 degree'
p977
aa(lp978
g4
(g8
S'\xfb\xceF}g\xa3\xee?'
p979
tp980
Rp981
ag4
(g8
S'\xaa\xaa\xaa\xaa\xaa\xaa\xee?'
p982
tp983
Rp984
aF0.09123492240905762
aI188
aS'kernel = 1 degree'
p985
ag4
(g8
S'<\x1b\xf5\x9d\x8d\xfa\xee?'
p986
tp987
Rp988
ag4
(g8
S'\x00\x00\x00\x00\x00\x00\xef?'
p989
tp990
Rp991
aF0.09336709976196289
aI188
aS'kernel = 1 degree'
p992
ag4
(g8
S'\x99\\AL\xae \xee?'
p993
tp994
Rp995
ag4
(g8
S'\xca\x16\xd1\x9c5(\xee?'
p996
tp997
Rp998
aF0.0792090892791748
aI188
aS'kernel = 1 degree'
p999
aa(lp1000
g4
(g8
S'<\x1b\xf5\x9d\x8d\xfa\xee?'
p1001
tp1002
Rp1003
ag4
(g8
S'\xb7m\xdb\xb6m\xdb\xee?'
p1004
tp1005
Rp1006
aF0.07285809516906738
aI188
aS'kernel = 1 degree'
p1007
ag4
(g8
S']AL\xae &\xef?'
p1008
tp1009
Rp1010
ag4
(g8
S'\x07\x1f|\xf0\xc1\x07\xef?'
p1011
tp1012
Rp1013
aF0.08519721031188965
aI188
aS'kernel = 1 degree'
p1014
ag4
(g8
S'\x1b\xf5\x9d\x8d\xfa\xce\xee?'
p1015
tp1016
Rp1017
ag4
(g8
S'\x909J\xb7\xaf\xac\xee?'
p1018
tp1019
Rp1020
aF0.07205700874328613
aI188
aS'kernel = 1 degree'
p1021
aa(lp1022
g4
(g8
S'<\x1b\xf5\x9d\x8d\xfa\xee?'
p1023
tp1024
Rp1025
ag4
(g8
S'<\x1b\xf5\x9d\x8d\xfa\xee?'
p1026
tp1027
Rp1028
aF0.12227702140808105
aI188
aS'kernel = 1 degree'
p1029
ag4
(g8
S'\x99\\AL\xae \xee?'
p1030
tp1031
Rp1032
ag4
(g8
S'\xca\x16\xd1\x9c5(\xee?'
p1033
tp1034
Rp1035
aF0.09459090232849121
aI188
aS'kernel = 1 degree'
p1036
ag4
(g8
S'\xda\xa8\xefl\xd4w\xee?'
p1037
tp1038
Rp1039
ag4
(g8
S'\xe1\xd6\xdeX\xfd\x81\xee?'
p1040
tp1041
Rp1042
aF0.08282589912414551
aI188
aS'kernel = 1 degree'
p1043
aa(lp1044
g4
(g8
S'}g\xa3\xbe\xb3Q\xef?'
p1045
tp1046
Rp1047
ag4
(g8
S'F\x17]t\xd1E\xef?'
p1048
tp1049
Rp1050
aF0.056405067443847656
aI188
aS'kernel = 1 degree'
p1051
ag4
(g8
S'r\x051\xb9\x82\x98\xec?'
p1052
tp1053
Rp1054
ag4
(g8
S'^t\xd1E\x17]\xec?'
p1055
tp1056
Rp1057
aF0.07764005661010742
aI188
aS'kernel = 0 degree'
p1058
ag4
(g8
S'\xda\xa8\xefl\xd4w\xee?'
p1059
tp1060
Rp1061
ag4
(g8
S'\x12L\xf4w\xb2Z\xee?'
p1062
tp1063
Rp1064
aF0.07998394966125488
aI188
aS'kernel = 1 degree'
p1065
aa(lp1066
g4
(g8
S'x6\xea;\x1b\xf5\xed?'
p1067
tp1068
Rp1069
ag4
(g8
S'\xaa\xdfsK\x9c\xfa\xed?'
p1070
tp1071
Rp1072
aF0.08198714256286621
aI188
aS'kernel = 1 degree'
p1073
ag4
(g8
S'\x1b\xf5\x9d\x8d\xfa\xce\xee?'
p1074
tp1075
Rp1076
ag4
(g8
S'\x9e\xed\xd9\x9e\xed\xd9\xee?'
p1077
tp1078
Rp1079
aF0.07947397232055664
aI188
aS'kernel = 1 degree'
p1080
ag4
(g8
S'6\xea;\x1b\xf5\x9d\xed?'
p1081
tp1082
Rp1083
ag4
(g8
S'6\xea;\x1b\xf5\x9d\xed?'
p1084
tp1085
Rp1086
aF0.09834504127502441
aI188
aS'kernel = 1 degree'
p1087
aa(lp1088
g4
(g8
S'}g\xa3\xbe\xb3Q\xef?'
p1089
tp1090
Rp1091
ag4
(g8
S'\xf4\xa3\x1f\xfd\xe8G\xef?'
p1092
tp1093
Rp1094
aF0.08748698234558105
aI188
aS'kernel = 1 degree'
p1095
ag4
(g8
S'x6\xea;\x1b\xf5\xed?'
p1096
tp1097
Rp1098
ag4
(g8
S'\xdf\xeb^\xf7\xba\xd7\xed?'
p1099
tp1100
Rp1101
aF0.07982897758483887
aI188
aS'kernel = 1 degree'
p1102
ag4
(g8
S'W\x10\x93+\x88\xc9\xed?'
p1103
tp1104
Rp1105
ag4
(g8
S'\xc5\xa6\xd2\x90s\x9f\xed?'
p1106
tp1107
Rp1108
aF0.08779001235961914
aI188
aS'kernel = 1 degree'
p1109
aas.