(dp0
S'austra'
p1
(lp2
(lp3
cnumpy.core.multiarray
scalar
p4
(cnumpy
dtype
p5
(S'f8'
p6
I0
I1
tp7
Rp8
(I3
S'<'
p9
NNNI-1
I-1
I0
tp10
bS'\xc2\x11DZ/`\xeb?'
p11
tp12
Rp13
ag4
(g8
S'a\xb9\xa7\x11\x96{\xea?'
p14
tp15
Rp16
aF0.053984880447387695
aI173
aS'kernel = 0 degree'
p17
ag4
(g8
S'\x0f\x8e \xd2z\x01\xeb?'
p18
tp19
Rp20
ag4
(g8
S'!\xf9\xf3*\x8b3\xea?'
p21
tp22
Rp23
aF0.060484886169433594
aI173
aS'kernel = 0 degree'
p24
ag4
(g8
S'u\x95g\xe2\xe3\xbe\xeb?'
p25
tp26
Rp27
ag4
(g8
S'\xbffG-B\xfe\xea?'
p28
tp29
Rp30
aF0.05288100242614746
aI173
aS'kernel = 0 degree'
p31
aa(lp32
g4
(g8
S'\x01\xdb\x9c\xae\xf2L\xec?'
p33
tp34
Rp35
ag4
(g8
S'\xa1\xbc\x86\xf2\x1a\xca\xeb?'
p36
tp37
Rp38
aF0.061372995376586914
aI173
aS'kernel = 0 degree'
p39
ag4
(g8
S'(\x19\x8bj\x98\x1d\xec?'
p40
tp41
Rp42
ag4
(g8
S'\x8b3\xda=l}\xeb?'
p43
tp44
Rp45
aF0.043311119079589844
aI173
aS'kernel = 0 degree'
p46
ag4
(g8
S'\xa9\x86\xd9\xc1\x11D\xea?'
p47
tp48
Rp49
ag4
(g8
S'\x13\xf6\x84=aO\xe8?'
p50
tp51
Rp52
aF0.04582619667053223
aI173
aS'kernel = 0 degree'
p53
aa(lp54
g4
(g8
S'u\x95g\xe2\xe3\xbe\xeb?'
p55
tp56
Rp57
ag4
(g8
S'x\xf3\x08\xd5g\xda\xea?'
p58
tp59
Rp60
aF0.04630088806152344
aI173
aS'kernel = 0 degree'
p61
ag4
(g8
S'u\x95g\xe2\xe3\xbe\xeb?'
p62
tp63
Rp64
ag4
(g8
S'x\xf3\x08\xd5g\xda\xea?'
p65
tp66
Rp67
aF0.03891396522521973
aI173
aS'kernel = 0 degree'
p68
ag4
(g8
S'NWy&>\xee\xeb?'
p69
tp70
Rp71
ag4
(g8
S'\x8b\xaf\xf8\x8a\xaf\xf8\xea?'
p72
tp73
Rp74
aF0.04430389404296875
aI173
aS'kernel = 0 degree'
p75
aa(lp76
g4
(g8
S'\x9b\xd3U\x9e\x89\x8f\xeb?'
p77
tp78
Rp79
ag4
(g8
S'P\xc2\x1bM\x9d_\xeb?'
p80
tp81
Rp82
aF0.039476871490478516
aI173
aS'kernel = 0 degree'
p83
ag4
(g8
S'\x9b\xd3U\x9e\x89\x8f\xeb?'
p84
tp85
Rp86
ag4
(g8
S'P\xc2\x1bM\x9d_\xeb?'
p87
tp88
Rp89
aF0.015189886093139648
aI173
aS'kernel = 0 degree'
p90
ag4
(g8
S'\x9b\xd3U\x9e\x89\x8f\xeb?'
p91
tp92
Rp93
ag4
(g8
S'P\xc2\x1bM\x9d_\xeb?'
p94
tp95
Rp96
aF0.04410195350646973
aI173
aS'kernel = 0 degree'
p97
aa(lp98
g4
(g8
S'\xc2\x11DZ/`\xeb?'
p99
tp100
Rp101
ag4
(g8
S'\xf3w\xf3\x08\xd5g\xea?'
p102
tp103
Rp104
aF0.03638005256652832
aI173
aS'kernel = 0 degree'
p105
ag4
(g8
S'\x0f\x8e \xd2z\x01\xeb?'
p106
tp107
Rp108
ag4
(g8
S'g\xa3\xbe\xb3Q\xdf\xe9?'
p109
tp110
Rp111
aF0.03556203842163086
aI173
aS'kernel = 0 degree'
p112
ag4
(g8
S'\xc2\x11DZ/`\xeb?'
p113
tp114
Rp115
ag4
(g8
S'\xeea\xeb\xdb\x80\xa1\xea?'
p116
tp117
Rp118
aF0.03599691390991211
aI173
aS'kernel = 0 degree'
p119
aa(lp120
g4
(g8
S'\xe8O2\x16\xd50\xeb?'
p121
tp122
Rp123
ag4
(g8
S'\xcc\xcc\xcc\xcc\xcc\xcc\xea?'
p124
tp125
Rp126
aF0.03307509422302246
aI173
aS'kernel = 0 degree'
p127
ag4
(g8
S'\x82H\xeb\x05ls\xea?'
p128
tp129
Rp130
ag4
(g8
S'\xd93\x10\x95\x8e\xec\xe9?'
p131
tp132
Rp133
aF0.03595399856567383
aI173
aS'kernel = 0 degree'
p134
ag4
(g8
S'\xe8O2\x16\xd50\xeb?'
p135
tp136
Rp137
ag4
(g8
S'\xbecj`\xef\x98\xea?'
p138
tp139
Rp140
aF0.014324188232421875
aI173
aS'kernel = 0 degree'
p141
aa(lp142
g4
(g8
S'NWy&>\xee\xeb?'
p143
tp144
Rp145
ag4
(g8
S'\xf4<\xcf\xf3<\xcf\xeb?'
p146
tp147
Rp148
aF0.03809309005737305
aI173
aS'kernel = 0 degree'
p149
ag4
(g8
S'NWy&>\xee\xeb?'
p150
tp151
Rp152
ag4
(g8
S'\xf4<\xcf\xf3<\xcf\xeb?'
p153
tp154
Rp155
aF0.03918790817260742
aI173
aS'kernel = 0 degree'
p156
ag4
(g8
S'NWy&>\xee\xeb?'
p157
tp158
Rp159
ag4
(g8
S'\xf4<\xcf\xf3<\xcf\xeb?'
p160
tp161
Rp162
aF0.035238027572631836
aI173
aS'kernel = 0 degree'
p163
aa(lp164
g4
(g8
S'NWy&>\xee\xeb?'
p165
tp166
Rp167
ag4
(g8
S'\xb5+Q\xbb\x12\xb5\xeb?'
p168
tp169
Rp170
aF0.05072188377380371
aI173
aS'kernel = 0 degree'
p171
ag4
(g8
S'NWy&>\xee\xeb?'
p172
tp173
Rp174
ag4
(g8
S'\xb5+Q\xbb\x12\xb5\xeb?'
p175
tp176
Rp177
aF0.015081167221069336
aI173
aS'kernel = 0 degree'
p178
ag4
(g8
S'NWy&>\xee\xeb?'
p179
tp180
Rp181
ag4
(g8
S'\x167a~W\x8b\xeb?'
p182
tp183
Rp184
aF0.043167829513549805
aI173
aS'kernel = 0 degree'
p185
aa(lp186
g4
(g8
S'5\xcc\x0e\x8e \xd2\xea?'
p187
tp188
Rp189
ag4
(g8
S'\x8a\xda\x95\xa8]\x89\xea?'
p190
tp191
Rp192
aF0.0165560245513916
aI173
aS'kernel = 0 degree'
p193
ag4
(g8
S'5\xcc\x0e\x8e \xd2\xea?'
p194
tp195
Rp196
ag4
(g8
S'\x8a\xda\x95\xa8]\x89\xea?'
p197
tp198
Rp199
aF0.033557891845703125
aI173
aS'kernel = 0 degree'
p200
ag4
(g8
S'\x0f\x8e \xd2z\x01\xeb?'
p201
tp202
Rp203
ag4
(g8
S'ZZZZZZ\xea?'
p204
tp205
Rp206
aF0.033702850341796875
aI173
aS'kernel = 0 degree'
p207
aa(lp208
g4
(g8
S'\xcf\xc4\xc7}\xb7\x14\xea?'
p209
tp210
Rp211
ag4
(g8
S'\x16\x03%\xbc\xd1\xd4\xe9?'
p212
tp213
Rp214
aF0.016349077224731445
aI173
aS'kernel = 0 degree'
p215
ag4
(g8
S'\xcf\xc4\xc7}\xb7\x14\xea?'
p216
tp217
Rp218
ag4
(g8
S'\x16\x03%\xbc\xd1\xd4\xe9?'
p219
tp220
Rp221
aF0.015029191970825195
aI173
aS'kernel = 0 degree'
p222
ag4
(g8
S'\xcf\xc4\xc7}\xb7\x14\xea?'
p223
tp224
Rp225
ag4
(g8
S'\x16\x03%\xbc\xd1\xd4\xe9?'
p226
tp227
Rp228
aF0.014163017272949219
aI173
aS'kernel = 0 degree'
p229
aa(lp230
g4
(g8
S'\xdb\x9c\xae\xf2L|\xec?'
p231
tp232
Rp233
ag4
(g8
S'\x1d\xc7q\x1c\xc7q\xec?'
p234
tp235
Rp236
aF0.019661903381347656
aI173
aS'kernel = 0 degree'
p237
ag4
(g8
S'\xdb\x9c\xae\xf2L|\xec?'
p238
tp239
Rp240
ag4
(g8
S'\x1d\xc7q\x1c\xc7q\xec?'
p241
tp242
Rp243
aF0.014998912811279297
aI173
aS'kernel = 0 degree'
p244
ag4
(g8
S'\xdb\x9c\xae\xf2L|\xec?'
p245
tp246
Rp247
ag4
(g8
S'\xd5\x83F\xde\xf9[\xec?'
p248
tp249
Rp250
aF0.008749008178710938
aI173
aS'kernel = 0 degree'
p251
aa(lp252
g4
(g8
S'NWy&>\xee\xeb?'
p253
tp254
Rp255
ag4
(g8
S'\x9a\x99\x99\x99\x99\x99\xeb?'
p256
tp257
Rp258
aF0.017367124557495117
aI173
aS'kernel = 0 degree'
p259
ag4
(g8
S'NWy&>\xee\xeb?'
p260
tp261
Rp262
ag4
(g8
S'\x9a\x99\x99\x99\x99\x99\xeb?'
p263
tp264
Rp265
aF0.009530067443847656
aI173
aS'kernel = 0 degree'
p266
ag4
(g8
S'\xdb\x9c\xae\xf2L|\xec?'
p267
tp268
Rp269
ag4
(g8
S'\x0c\xe9\xbc\xc5\x90\xce\xeb?'
p270
tp271
Rp272
aF0.008777856826782227
aI173
aS'kernel = 0 degree'
p273
aa(lp274
g4
(g8
S'\x01\xdb\x9c\xae\xf2L\xec?'
p275
tp276
Rp277
ag4
(g8
S'\xa1\xbc\x86\xf2\x1a\xca\xeb?'
p278
tp279
Rp280
aF0.009578943252563477
aI173
aS'kernel = 0 degree'
p281
ag4
(g8
S'\x01\xdb\x9c\xae\xf2L\xec?'
p282
tp283
Rp284
ag4
(g8
S'\xa1\xbc\x86\xf2\x1a\xca\xeb?'
p285
tp286
Rp287
aF0.015079975128173828
aI173
aS'kernel = 0 degree'
p288
ag4
(g8
S'\xdb\x9c\xae\xf2L|\xec?'
p289
tp290
Rp291
ag4
(g8
S'\xe0\xe4o\xf27\xf9\xeb?'
p292
tp293
Rp294
aF0.014104843139648438
aI173
aS'kernel = 0 degree'
p295
aa(lp296
g4
(g8
S'u\x95g\xe2\xe3\xbe\xeb?'
p297
tp298
Rp299
ag4
(g8
S'\xfbC!\xb9\x80\xd7\xeb?'
p300
tp301
Rp302
aF0.01631903648376465
aI173
aS'kernel = 0 degree'
p303
ag4
(g8
S'\xc2\x11DZ/`\xeb?'
p304
tp305
Rp306
ag4
(g8
S'\xdb\xb6m\xdb\xb6m\xeb?'
p307
tp308
Rp309
aF0.014776945114135742
aI173
aS'kernel = 0 degree'
p310
ag4
(g8
S'5\xcc\x0e\x8e \xd2\xea?'
p311
tp312
Rp313
ag4
(g8
S'\xb3\xa6\xac)k\xca\xea?'
p314
tp315
Rp316
aF0.008718013763427734
aI173
aS'kernel = 0 degree'
p317
aa(lp318
g4
(g8
S'\\\n\xfdI\xc6\xa2\xea?'
p319
tp320
Rp321
ag4
(g8
S'\xc2\x803\xaeE\x82\xea?'
p322
tp323
Rp324
aF0.016440868377685547
aI173
aS'kernel = 0 degree'
p325
ag4
(g8
S'\\\n\xfdI\xc6\xa2\xea?'
p326
tp327
Rp328
ag4
(g8
S'\xc2\x803\xaeE\x82\xea?'
p329
tp330
Rp331
aF0.015239953994750977
aI173
aS'kernel = 0 degree'
p332
ag4
(g8
S'\\\n\xfdI\xc6\xa2\xea?'
p333
tp334
Rp335
ag4
(g8
S'\xc2\x803\xaeE\x82\xea?'
p336
tp337
Rp338
aF0.008517026901245117
aI173
aS'kernel = 0 degree'
p339
aa(lp340
g4
(g8
S'u\x95g\xe2\xe3\xbe\xeb?'
p341
tp342
Rp343
ag4
(g8
S'u\x95g\xe2\xe3\xbe\xeb?'
p344
tp345
Rp346
aF0.009791135787963867
aI173
aS'kernel = 0 degree'
p347
ag4
(g8
S'u\x95g\xe2\xe3\xbe\xeb?'
p348
tp349
Rp350
ag4
(g8
S'u\x95g\xe2\xe3\xbe\xeb?'
p351
tp352
Rp353
aF0.01491403579711914
aI173
aS'kernel = 0 degree'
p354
ag4
(g8
S'u\x95g\xe2\xe3\xbe\xeb?'
p355
tp356
Rp357
ag4
(g8
S'u\x95g\xe2\xe3\xbe\xeb?'
p358
tp359
Rp360
aF0.014308929443359375
aI173
aS'kernel = 0 degree'
p361
aa(lp362
g4
(g8
S'\xdb\x9c\xae\xf2L|\xec?'
p363
tp364
Rp365
ag4
(g8
S'\x1d\xc7q\x1c\xc7q\xec?'
p366
tp367
Rp368
aF0.015819072723388672
aI173
aS'kernel = 0 degree'
p369
ag4
(g8
S'\xdb\x9c\xae\xf2L|\xec?'
p370
tp371
Rp372
ag4
(g8
S'\xd5\x83F\xde\xf9[\xec?'
p373
tp374
Rp375
aF0.014831066131591797
aI173
aS'kernel = 0 degree'
p376
ag4
(g8
S'NWy&>\xee\xeb?'
p377
tp378
Rp379
ag4
(g8
S' rY1P\xc2\xeb?'
p380
tp381
Rp382
aF0.014961957931518555
aI173
aS'kernel = 0 degree'
p383
aa(lp384
g4
(g8
S'\x82H\xeb\x05ls\xea?'
p385
tp386
Rp387
ag4
(g8
S'\x9b\xb2\xa6\xac)k\xea?'
p388
tp389
Rp390
aF0.01589798927307129
aI173
aS'kernel = 0 degree'
p391
ag4
(g8
S'\x82H\xeb\x05ls\xea?'
p392
tp393
Rp394
ag4
(g8
S'\x9b\xb2\xa6\xac)k\xea?'
p395
tp396
Rp397
aF0.015089035034179688
aI173
aS'kernel = 0 degree'
p398
ag4
(g8
S'5\xcc\x0e\x8e \xd2\xea?'
p399
tp400
Rp401
ag4
(g8
S'\xb3b\xa0\x847\x9a\xea?'
p402
tp403
Rp404
aF0.008917093276977539
aI173
aS'kernel = 0 degree'
p405
aa(lp406
g4
(g8
S'(\x19\x8bj\x98\x1d\xec?'
p407
tp408
Rp409
ag4
(g8
S'\xe4\xba\xe3\xc5\x96\xe0\xeb?'
p410
tp411
Rp412
aF0.01588296890258789
aI173
aS'kernel = 0 degree'
p413
ag4
(g8
S'(\x19\x8bj\x98\x1d\xec?'
p414
tp415
Rp416
ag4
(g8
S'\xe4\xba\xe3\xc5\x96\xe0\xeb?'
p417
tp418
Rp419
aF0.014750003814697266
aI173
aS'kernel = 0 degree'
p420
ag4
(g8
S'\x01\xdb\x9c\xae\xf2L\xec?'
p421
tp422
Rp423
ag4
(g8
S'vk~X\xa4\x0c\xec?'
p424
tp425
Rp426
aF0.008538961410522461
aI173
aS'kernel = 0 degree'
p427
aa(lp428
g4
(g8
S'u\x95g\xe2\xe3\xbe\xeb?'
p429
tp430
Rp431
ag4
(g8
S'#\xbb\x89\xec&\xb2\xeb?'
p432
tp433
Rp434
aF0.01568293571472168
aI173
aS'kernel = 0 degree'
p435
ag4
(g8
S'u\x95g\xe2\xe3\xbe\xeb?'
p436
tp437
Rp438
ag4
(g8
S'#\xbb\x89\xec&\xb2\xeb?'
p439
tp440
Rp441
aF0.013478994369506836
aI173
aS'kernel = 0 degree'
p442
ag4
(g8
S'\x0f\x8e \xd2z\x01\xeb?'
p443
tp444
Rp445
ag4
(g8
S'.4`I/\x7f\xea?'
p446
tp447
Rp448
aF0.014121055603027344
aI173
aS'kernel = 0 degree'
p449
aa(lp450
g4
(g8
S'(\x19\x8bj\x98\x1d\xec?'
p451
tp452
Rp453
ag4
(g8
S'3O\xa8\x05\x8cI\xec?'
p454
tp455
Rp456
aF0.01574110984802246
aI173
aS'kernel = 0 degree'
p457
ag4
(g8
S'(\x19\x8bj\x98\x1d\xec?'
p458
tp459
Rp460
ag4
(g8
S'3O\xa8\x05\x8cI\xec?'
p461
tp462
Rp463
aF0.00945901870727539
aI173
aS'kernel = 0 degree'
p464
ag4
(g8
S'(\x19\x8bj\x98\x1d\xec?'
p465
tp466
Rp467
ag4
(g8
S'3O\xa8\x05\x8cI\xec?'
p468
tp469
Rp470
aF0.01400303840637207
aI173
aS'kernel = 0 degree'
p471
aa(lp472
g4
(g8
S'\xc2\x11DZ/`\xeb?'
p473
tp474
Rp475
ag4
(g8
S'\xf3w\xf3\x08\xd5g\xea?'
p476
tp477
Rp478
aF0.01574993133544922
aI173
aS'kernel = 0 degree'
p479
ag4
(g8
S'\xc2\x11DZ/`\xeb?'
p480
tp481
Rp482
ag4
(g8
S'\xeea\xeb\xdb\x80\xa1\xea?'
p483
tp484
Rp485
aF0.014857053756713867
aI173
aS'kernel = 0 degree'
p486
ag4
(g8
S'\xc2\x11DZ/`\xeb?'
p487
tp488
Rp489
ag4
(g8
S'\xeea\xeb\xdb\x80\xa1\xea?'
p490
tp491
Rp492
aF0.008615970611572266
aI173
aS'kernel = 0 degree'
p493
aa(lp494
g4
(g8
S'\xcf\xc4\xc7}\xb7\x14\xea?'
p495
tp496
Rp497
ag4
(g8
S'\x16\x03%\xbc\xd1\xd4\xe9?'
p498
tp499
Rp500
aF0.016225099563598633
aI173
aS'kernel = 0 degree'
p501
ag4
(g8
S'\\\n\xfdI\xc6\xa2\xea?'
p502
tp503
Rp504
ag4
(g8
S'\x10\x1ay\xe7oq\xea?'
p505
tp506
Rp507
aF0.009163856506347656
aI173
aS'kernel = 0 degree'
p508
ag4
(g8
S'5\xcc\x0e\x8e \xd2\xea?'
p509
tp510
Rp511
ag4
(g8
S'\xb3\xa6\xac)k\xca\xea?'
p512
tp513
Rp514
aF0.014247894287109375
aI173
aS'kernel = 0 degree'
p515
aa(lp516
g4
(g8
S'\xc2\x11DZ/`\xeb?'
p517
tp518
Rp519
ag4
(g8
S'\xf3w\xf3\x08\xd5g\xea?'
p520
tp521
Rp522
aF0.01542210578918457
aI173
aS'kernel = 0 degree'
p523
ag4
(g8
S'\xc2\x11DZ/`\xeb?'
p524
tp525
Rp526
ag4
(g8
S'\xeea\xeb\xdb\x80\xa1\xea?'
p527
tp528
Rp529
aF0.014644861221313477
aI173
aS'kernel = 0 degree'
p530
ag4
(g8
S'\xc2\x11DZ/`\xeb?'
p531
tp532
Rp533
ag4
(g8
S'\xeea\xeb\xdb\x80\xa1\xea?'
p534
tp535
Rp536
aF0.014787912368774414
aI173
aS'kernel = 0 degree'
p537
aa(lp538
g4
(g8
S'\xc2\x11DZ/`\xeb?'
p539
tp540
Rp541
ag4
(g8
S'\xeea\xeb\xdb\x80\xa1\xea?'
p542
tp543
Rp544
aF0.015124082565307617
aI173
aS'kernel = 0 degree'
p545
ag4
(g8
S'\xc2\x11DZ/`\xeb?'
p546
tp547
Rp548
ag4
(g8
S'\xeea\xeb\xdb\x80\xa1\xea?'
p549
tp550
Rp551
aF0.014623880386352539
aI173
aS'kernel = 0 degree'
p552
ag4
(g8
S'NWy&>\xee\xeb?'
p553
tp554
Rp555
ag4
(g8
S'\x8b\xaf\xf8\x8a\xaf\xf8\xea?'
p556
tp557
Rp558
aF0.008671045303344727
aI173
aS'kernel = 0 degree'
p559
aa(lp560
g4
(g8
S'\x9b\xd3U\x9e\x89\x8f\xeb?'
p561
tp562
Rp563
ag4
(g8
S'\xdb\xb6m\xdb\xb6m\xeb?'
p564
tp565
Rp566
aF0.016199111938476562
aI173
aS'kernel = 0 degree'
p567
ag4
(g8
S'\x9b\xd3U\x9e\x89\x8f\xeb?'
p568
tp569
Rp570
ag4
(g8
S'\xdb\xb6m\xdb\xb6m\xeb?'
p571
tp572
Rp573
aF0.010694026947021484
aI173
aS'kernel = 0 degree'
p574
ag4
(g8
S'\x82H\xeb\x05ls\xea?'
p575
tp576
Rp577
ag4
(g8
S'\xe4\xb2b\xa0\x847\xea?'
p578
tp579
Rp580
aF0.013968944549560547
aI173
aS'kernel = 0 degree'
p581
aa(lp582
g4
(g8
S'u\x95g\xe2\xe3\xbe\xeb?'
p583
tp584
Rp585
ag4
(g8
S'\xdb\xb6m\xdb\xb6m\xeb?'
p586
tp587
Rp588
aF0.016455888748168945
aI173
aS'kernel = 0 degree'
p589
ag4
(g8
S'u\x95g\xe2\xe3\xbe\xeb?'
p590
tp591
Rp592
ag4
(g8
S'\xdb\xb6m\xdb\xb6m\xeb?'
p593
tp594
Rp595
aF0.014297008514404297
aI173
aS'kernel = 0 degree'
p596
ag4
(g8
S'u\x95g\xe2\xe3\xbe\xeb?'
p597
tp598
Rp599
ag4
(g8
S'\xdb\xb6m\xdb\xb6m\xeb?'
p600
tp601
Rp602
aF0.01419687271118164
aI173
aS'kernel = 0 degree'
p603
aa(lp604
g4
(g8
S'\xdb\x9c\xae\xf2L|\xec?'
p605
tp606
Rp607
ag4
(g8
S'\x1d\xc7q\x1c\xc7q\xec?'
p608
tp609
Rp610
aF0.01612401008605957
aI173
aS'kernel = 0 degree'
p611
ag4
(g8
S'\xdb\x9c\xae\xf2L|\xec?'
p612
tp613
Rp614
ag4
(g8
S'\xd5\x83F\xde\xf9[\xec?'
p615
tp616
Rp617
aF0.015020132064819336
aI173
aS'kernel = 0 degree'
p618
ag4
(g8
S'NWy&>\xee\xeb?'
p619
tp620
Rp621
ag4
(g8
S' rY1P\xc2\xeb?'
p622
tp623
Rp624
aF0.013978958129882812
aI173
aS'kernel = 0 degree'
p625
aa(lp626
g4
(g8
S'\x9b\xd3U\x9e\x89\x8f\xeb?'
p627
tp628
Rp629
ag4
(g8
S'P\xc2\x1bM\x9d_\xeb?'
p630
tp631
Rp632
aF0.0157320499420166
aI173
aS'kernel = 0 degree'
p633
ag4
(g8
S'\x9b\xd3U\x9e\x89\x8f\xeb?'
p634
tp635
Rp636
ag4
(g8
S'P\xc2\x1bM\x9d_\xeb?'
p637
tp638
Rp639
aF0.009261131286621094
aI173
aS'kernel = 0 degree'
p640
ag4
(g8
S'NWy&>\xee\xeb?'
p641
tp642
Rp643
ag4
(g8
S'\xdc\xb6m\xdb\xb6m\xeb?'
p644
tp645
Rp646
aF0.013638019561767578
aI173
aS'kernel = 0 degree'
p647
aa(lp648
g4
(g8
S'5\xcc\x0e\x8e \xd2\xea?'
p649
tp650
Rp651
ag4
(g8
S'\x8a\xda\x95\xa8]\x89\xea?'
p652
tp653
Rp654
aF0.010003089904785156
aI173
aS'kernel = 0 degree'
p655
ag4
(g8
S'5\xcc\x0e\x8e \xd2\xea?'
p656
tp657
Rp658
ag4
(g8
S'\x8a\xda\x95\xa8]\x89\xea?'
p659
tp660
Rp661
aF0.01518702507019043
aI173
aS'kernel = 0 degree'
p662
ag4
(g8
S'\\\n\xfdI\xc6\xa2\xea?'
p663
tp664
Rp665
ag4
(g8
S'6\x1e\xcd\x1fl<\xea?'
p666
tp667
Rp668
aF0.015230894088745117
aI173
aS'kernel = 0 degree'
p669
aa(lp670
g4
(g8
S'\xc2\x11DZ/`\xeb?'
p671
tp672
Rp673
ag4
(g8
S'\xd6\xcejg\xb5\xb3\xea?'
p674
tp675
Rp676
aF0.009589195251464844
aI173
aS'kernel = 0 degree'
p677
ag4
(g8
S'\xc2\x11DZ/`\xeb?'
p678
tp679
Rp680
ag4
(g8
S'\xd6\xcejg\xb5\xb3\xea?'
p681
tp682
Rp683
aF0.015027999877929688
aI173
aS'kernel = 0 degree'
p684
ag4
(g8
S'\x82H\xeb\x05ls\xea?'
p685
tp686
Rp687
ag4
(g8
S'\xf1\xf0\xf0\xf0\xf0\xf0\xe8?'
p688
tp689
Rp690
aF0.008826017379760742
aI173
aS'kernel = 0 degree'
p691
aa(lp692
g4
(g8
S'\x9b\xd3U\x9e\x89\x8f\xeb?'
p693
tp694
Rp695
ag4
(g8
S'333333\xeb?'
p696
tp697
Rp698
aF0.010088205337524414
aI173
aS'kernel = 0 degree'
p699
ag4
(g8
S'NWy&>\xee\xeb?'
p700
tp701
Rp702
ag4
(g8
S'\x99\x99\x99\x99\x99\x99\xeb?'
p703
tp704
Rp705
aF0.009077072143554688
aI173
aS'kernel = 0 degree'
p706
ag4
(g8
S'(\x19\x8bj\x98\x1d\xec?'
p707
tp708
Rp709
ag4
(g8
S'\xdc\xb6m\xdb\xb6m\xeb?'
p710
tp711
Rp712
aF0.008871078491210938
aI173
aS'kernel = 0 degree'
p713
aa(lp714
g4
(g8
S'(\x19\x8bj\x98\x1d\xec?'
p715
tp716
Rp717
ag4
(g8
S'\xb0\xac\xde%\x0f\x06\xec?'
p718
tp719
Rp720
aF0.016067028045654297
aI173
aS'kernel = 0 degree'
p721
ag4
(g8
S'\x01\xdb\x9c\xae\xf2L\xec?'
p722
tp723
Rp724
ag4
(g8
S'<<<<<<\xec?'
p725
tp726
Rp727
aF0.01509714126586914
aI173
aS'kernel = 0 degree'
p728
ag4
(g8
S'\xdb\x9c\xae\xf2L|\xec?'
p729
tp730
Rp731
ag4
(g8
S'n\xfe\n\xb3\x1aE\xec?'
p732
tp733
Rp734
aF0.013911962509155273
aI173
aS'kernel = 0 degree'
p735
aa(lp736
g4
(g8
S'u\x95g\xe2\xe3\xbe\xeb?'
p737
tp738
Rp739
ag4
(g8
S'u\x95g\xe2\xe3\xbe\xeb?'
p740
tp741
Rp742
aF0.010040998458862305
aI173
aS'kernel = 0 degree'
p743
ag4
(g8
S'u\x95g\xe2\xe3\xbe\xeb?'
p744
tp745
Rp746
ag4
(g8
S'u\x95g\xe2\xe3\xbe\xeb?'
p747
tp748
Rp749
aF0.009214162826538086
aI173
aS'kernel = 0 degree'
p750
ag4
(g8
S'\x9b\xd3U\x9e\x89\x8f\xeb?'
p751
tp752
Rp753
ag4
(g8
S'\x1aa\xb9\xa7\x11\x96\xeb?'
p754
tp755
Rp756
aF0.008553028106689453
aI173
aS'kernel = 0 degree'
p757
aa(lp758
g4
(g8
S'\xc2\x11DZ/`\xeb?'
p759
tp760
Rp761
ag4
(g8
S'\xb8\x16\tj*D\xeb?'
p762
tp763
Rp764
aF0.009835958480834961
aI173
aS'kernel = 0 degree'
p765
ag4
(g8
S'\xe8O2\x16\xd50\xeb?'
p766
tp767
Rp768
ag4
(g8
S'\x1b\x1b\x1b\x1b\x1b\x1b\xeb?'
p769
tp770
Rp771
aF0.009161949157714844
aI173
aS'kernel = 0 degree'
p772
ag4
(g8
S'\xc2\x11DZ/`\xeb?'
p773
tp774
Rp775
ag4
(g8
S'\xd6Zk\xad\xb5\xd6\xea?'
p776
tp777
Rp778
aF0.009101152420043945
aI173
aS'kernel = 0 degree'
p779
aa(lp780
g4
(g8
S'\x8e \xd2z\x01\xdb\xec?'
p781
tp782
Rp783
ag4
(g8
S'\x80O\x0e\x97\x01\x9f\xec?'
p784
tp785
Rp786
aF0.009698867797851562
aI173
aS'kernel = 0 degree'
p787
ag4
(g8
S'h\xe2\xe3\xbe[\n\xed?'
p788
tp789
Rp790
ag4
(g8
S'}\xcb\xb7|\xcb\xb7\xec?'
p791
tp792
Rp793
aF0.012900114059448242
aI173
aS'kernel = 0 degree'
p794
ag4
(g8
S'\xdb\x9c\xae\xf2L|\xec?'
p795
tp796
Rp797
ag4
(g8
S'p\xa9l\xef:\xa0\xeb?'
p798
tp799
Rp800
aF0.008593082427978516
aI173
aS'kernel = 0 degree'
p801
aa(lp802
g4
(g8
S'\xb5^\xc06\xa7\xab\xec?'
p803
tp804
Rp805
ag4
(g8
S'\x1c\xc7q\x1c\xc7q\xec?'
p806
tp807
Rp808
aF0.009685039520263672
aI173
aS'kernel = 0 degree'
p809
ag4
(g8
S'\xb5^\xc06\xa7\xab\xec?'
p810
tp811
Rp812
ag4
(g8
S'\x1c\xc7q\x1c\xc7q\xec?'
p813
tp814
Rp815
aF0.009266138076782227
aI173
aS'kernel = 0 degree'
p816
ag4
(g8
S'\x01\xdb\x9c\xae\xf2L\xec?'
p817
tp818
Rp819
ag4
(g8
S'\xbc\xbb\xbb\xbb\xbb\xbb\xeb?'
p820
tp821
Rp822
aF0.008614063262939453
aI173
aS'kernel = 0 degree'
p823
aa(lp824
g4
(g8
S'\x9b\xd3U\x9e\x89\x8f\xeb?'
p825
tp826
Rp827
ag4
(g8
S'\xba\xd7\xbd\xeeu\xaf\xeb?'
p828
tp829
Rp830
aF0.00960397720336914
aI173
aS'kernel = 0 degree'
p831
ag4
(g8
S'u\x95g\xe2\xe3\xbe\xeb?'
p832
tp833
Rp834
ag4
(g8
S'\xfbC!\xb9\x80\xd7\xeb?'
p835
tp836
Rp837
aF0.009710073471069336
aI173
aS'kernel = 0 degree'
p838
ag4
(g8
S'\\\n\xfdI\xc6\xa2\xea?'
p839
tp840
Rp841
ag4
(g8
S'\x853 \x94\xdc)\xea?'
p842
tp843
Rp844
aF0.014101982116699219
aI173
aS'kernel = 0 degree'
p845
aa(lp846
g4
(g8
S'\x82H\xeb\x05ls\xea?'
p847
tp848
Rp849
ag4
(g8
S'&jW\xa2v%\xea?'
p850
tp851
Rp852
aF0.009341955184936523
aI173
aS'kernel = 0 degree'
p853
ag4
(g8
S'\x82H\xeb\x05ls\xea?'
p854
tp855
Rp856
ag4
(g8
S'&jW\xa2v%\xea?'
p857
tp858
Rp859
aF0.009777069091796875
aI173
aS'kernel = 0 degree'
p860
ag4
(g8
S'\x82H\xeb\x05ls\xea?'
p861
tp862
Rp863
ag4
(g8
S'\x8a\x9d\xd8\x89\x9d\xd8\xe9?'
p864
tp865
Rp866
aF0.011705160140991211
aI173
aS'kernel = 0 degree'
p867
aa(lp868
g4
(g8
S'(\x19\x8bj\x98\x1d\xec?'
p869
tp870
Rp871
ag4
(g8
S'\xe4\xba\xe3\xc5\x96\xe0\xeb?'
p872
tp873
Rp874
aF0.009919881820678711
aI173
aS'kernel = 0 degree'
p875
ag4
(g8
S'(\x19\x8bj\x98\x1d\xec?'
p876
tp877
Rp878
ag4
(g8
S'\xe4\xba\xe3\xc5\x96\xe0\xeb?'
p879
tp880
Rp881
aF0.009436845779418945
aI173
aS'kernel = 0 degree'
p882
ag4
(g8
S'\xdb\x9c\xae\xf2L|\xec?'
p883
tp884
Rp885
ag4
(g8
S'\x1a\x10J\xee\x14-\xec?'
p886
tp887
Rp888
aF0.008727073669433594
aI173
aS'kernel = 0 degree'
p889
aa(lp890
g4
(g8
S'NWy&>\xee\xeb?'
p891
tp892
Rp893
ag4
(g8
S'\x9a\x99\x99\x99\x99\x99\xeb?'
p894
tp895
Rp896
aF0.009658098220825195
aI173
aS'kernel = 0 degree'
p897
ag4
(g8
S'NWy&>\xee\xeb?'
p898
tp899
Rp900
ag4
(g8
S'\x9a\x99\x99\x99\x99\x99\xeb?'
p901
tp902
Rp903
aF0.009167909622192383
aI173
aS'kernel = 0 degree'
p904
ag4
(g8
S'NWy&>\xee\xeb?'
p905
tp906
Rp907
ag4
(g8
S'\xe55\x94\xd7P^\xeb?'
p908
tp909
Rp910
aF0.00885009765625
aI173
aS'kernel = 0 degree'
p911
aa(lp912
g4
(g8
S'(\x19\x8bj\x98\x1d\xec?'
p913
tp914
Rp915
ag4
(g8
S'3O\xa8\x05\x8cI\xec?'
p916
tp917
Rp918
aF0.009659051895141602
aI173
aS'kernel = 0 degree'
p919
ag4
(g8
S'(\x19\x8bj\x98\x1d\xec?'
p920
tp921
Rp922
ag4
(g8
S'3O\xa8\x05\x8cI\xec?'
p923
tp924
Rp925
aF0.009330987930297852
aI173
aS'kernel = 0 degree'
p926
ag4
(g8
S'u\x95g\xe2\xe3\xbe\xeb?'
p927
tp928
Rp929
ag4
(g8
S'\xfa\xeb\xb9\x8ae\xe3\xeb?'
p930
tp931
Rp932
aF0.008591175079345703
aI173
aS'kernel = 0 degree'
p933
aa(lp934
g4
(g8
S'u\x95g\xe2\xe3\xbe\xeb?'
p935
tp936
Rp937
ag4
(g8
S']w\xbc\xd8\x12|\xeb?'
p938
tp939
Rp940
aF0.009490013122558594
aI173
aS'kernel = 0 degree'
p941
ag4
(g8
S'u\x95g\xe2\xe3\xbe\xeb?'
p942
tp943
Rp944
ag4
(g8
S']w\xbc\xd8\x12|\xeb?'
p945
tp946
Rp947
aF0.009109020233154297
aI173
aS'kernel = 0 degree'
p948
ag4
(g8
S'\xf6\x02\xb69]\xe5\xe9?'
p949
tp950
Rp951
ag4
(g8
S'\xd9\x89\x9d\xd8\x89\x9d\xe8?'
p952
tp953
Rp954
aF0.008533954620361328
aI173
aS'kernel = 0 degree'
p955
aa(lp956
g4
(g8
S'u\x95g\xe2\xe3\xbe\xeb?'
p957
tp958
Rp959
ag4
(g8
S'\x82\x89\xfeNV\xcb\xeb?'
p960
tp961
Rp962
aF0.013557910919189453
aI173
aS'kernel = 0 degree'
p963
ag4
(g8
S'u\x95g\xe2\xe3\xbe\xeb?'
p964
tp965
Rp966
ag4
(g8
S'\x82\x89\xfeNV\xcb\xeb?'
p967
tp968
Rp969
aF0.009243011474609375
aI173
aS'kernel = 0 degree'
p970
ag4
(g8
S'u\x95g\xe2\xe3\xbe\xeb?'
p971
tp972
Rp973
ag4
(g8
S'\x82\x89\xfeNV\xcb\xeb?'
p974
tp975
Rp976
aF0.010175943374633789
aI173
aS'kernel = 0 degree'
p977
aa(lp978
g4
(g8
S'\xb5^\xc06\xa7\xab\xec?'
p979
tp980
Rp981
ag4
(g8
S'\x1c\xc7q\x1c\xc7q\xec?'
p982
tp983
Rp984
aF0.009883880615234375
aI173
aS'kernel = 0 degree'
p985
ag4
(g8
S'\xdb\x9c\xae\xf2L|\xec?'
p986
tp987
Rp988
ag4
(g8
S'\x9f\x1c.\x03>9\xec?'
p989
tp990
Rp991
aF0.009200811386108398
aI173
aS'kernel = 0 degree'
p992
ag4
(g8
S'\xe8O2\x16\xd50\xeb?'
p993
tp994
Rp995
ag4
(g8
S'\x81D+l\x0e$\xea?'
p996
tp997
Rp998
aF0.008845090866088867
aI173
aS'kernel = 0 degree'
p999
aa(lp1000
g4
(g8
S'\xf6\x02\xb69]\xe5\xe9?'
p1001
tp1002
Rp1003
ag4
(g8
S's\xb8\x0c\xf8\xe4p\xe9?'
p1004
tp1005
Rp1006
aF0.009707927703857422
aI173
aS'kernel = 0 degree'
p1007
ag4
(g8
S'\xf6\x02\xb69]\xe5\xe9?'
p1008
tp1009
Rp1010
ag4
(g8
S'0Y\xfe\x92\xe5/\xe9?'
p1011
tp1012
Rp1013
aF0.009000062942504883
aI173
aS'kernel = 0 degree'
p1014
ag4
(g8
S"\x90\xfbn)\xf4'\xe9?"
p1015
tp1016
Rp1017
ag4
(g8
S'\xd3\x180\x8d\x01\xd3\xe8?'
p1018
tp1019
Rp1020
aF0.008675098419189453
aI173
aS'kernel = 0 degree'
p1021
aa(lp1022
g4
(g8
S'(\x19\x8bj\x98\x1d\xec?'
p1023
tp1024
Rp1025
ag4
(g8
S'\xe4\xba\xe3\xc5\x96\xe0\xeb?'
p1026
tp1027
Rp1028
aF0.00964212417602539
aI173
aS'kernel = 0 degree'
p1029
ag4
(g8
S'\xdb\x9c\xae\xf2L|\xec?'
p1030
tp1031
Rp1032
ag4
(g8
S'\\\xb1\x06\\\xb1\x06\xec?'
p1033
tp1034
Rp1035
aF0.009258031845092773
aI173
aS'kernel = 0 degree'
p1036
ag4
(g8
S'(\x19\x8bj\x98\x1d\xec?'
p1037
tp1038
Rp1039
ag4
(g8
S'\xe4\xba\xe3\xc5\x96\xe0\xeb?'
p1040
tp1041
Rp1042
aF0.008516073226928711
aI173
aS'kernel = 0 degree'
p1043
aa(lp1044
g4
(g8
S'\x1cA\xa4\xf5\x02\xb6\xe9?'
p1045
tp1046
Rp1047
ag4
(g8
S'433333\xe9?'
p1048
tp1049
Rp1050
aF0.009328842163085938
aI173
aS'kernel = 0 degree'
p1051
ag4
(g8
S'\x1cA\xa4\xf5\x02\xb6\xe9?'
p1052
tp1053
Rp1054
ag4
(g8
S'433333\xe9?'
p1055
tp1056
Rp1057
aF0.009124994277954102
aI173
aS'kernel = 0 degree'
p1058
ag4
(g8
S"\x90\xfbn)\xf4'\xe9?"
p1059
tp1060
Rp1061
ag4
(g8
S'\x0bZ}\xa9\xa0\xd5\xe7?'
p1062
tp1063
Rp1064
aF0.008682012557983398
aI173
aS'kernel = 0 degree'
p1065
aa(lp1066
g4
(g8
S'5\xcc\x0e\x8e \xd2\xea?'
p1067
tp1068
Rp1069
ag4
(g8
S'\x8a\xda\x95\xa8]\x89\xea?'
p1070
tp1071
Rp1072
aF0.00950002670288086
aI173
aS'kernel = 0 degree'
p1073
ag4
(g8
S'5\xcc\x0e\x8e \xd2\xea?'
p1074
tp1075
Rp1076
ag4
(g8
S'\x8a\xda\x95\xa8]\x89\xea?'
p1077
tp1078
Rp1079
aF0.009085893630981445
aI173
aS'kernel = 0 degree'
p1080
ag4
(g8
S'u\x95g\xe2\xe3\xbe\xeb?'
p1081
tp1082
Rp1083
ag4
(g8
S'\x85\x06,\xe9\xe5O\xeb?'
p1084
tp1085
Rp1086
aF0.009632110595703125
aI173
aS'kernel = 0 degree'
p1087
aa(lp1088
g4
(g8
S'\xcf\xc4\xc7}\xb7\x14\xea?'
p1089
tp1090
Rp1091
ag4
(g8
S'\x16\x03%\xbc\xd1\xd4\xe9?'
p1092
tp1093
Rp1094
aF0.009443998336791992
aI173
aS'kernel = 0 degree'
p1095
ag4
(g8
S'\xcf\xc4\xc7}\xb7\x14\xea?'
p1096
tp1097
Rp1098
ag4
(g8
S'\x16\x03%\xbc\xd1\xd4\xe9?'
p1099
tp1100
Rp1101
aF0.00906515121459961
aI173
aS'kernel = 0 degree'
p1102
ag4
(g8
S'5\xcc\x0e\x8e \xd2\xea?'
p1103
tp1104
Rp1105
ag4
(g8
S'\xb3\xa6\xac)k\xca\xea?'
p1106
tp1107
Rp1108
aF0.013581037521362305
aI173
aS'kernel = 0 degree'
p1109
aas.