(dp0
S'letter'
p1
(lp2
(lp3
cnumpy.core.multiarray
scalar
p4
(cnumpy
dtype
p5
(S'f8'
p6
I0
I1
tp7
Rp8
(I3
S'<'
p9
NNNI-1
I-1
I0
tp10
bS"W\xec/\xbb'\x0f\xef?"
p11
tp12
Rp13
ag4
(g8
S'Z\nBV\x11\x05\xef?'
p14
tp15
Rp16
aF3.670027017593384
aI5000
aS'kernel = 2 degree'
p17
ag4
(g8
S'\xb6\xf3\xfd\xd4x\xe9\xee?'
p18
tp19
Rp20
ag4
(g8
S'\xe7\xedaHx\xde\xee?'
p21
tp22
Rp23
aF1.984241008758545
aI5000
aS'kernel = 2 degree'
p24
ag4
(g8
S'\x91\xed|?5^\xee?'
p25
tp26
Rp27
ag4
(g8
S')3\xf7\xddiO\xee?'
p28
tp29
Rp30
aF2.0590431690216064
aI5000
aS'kernel = 2 degree'
p31
aa(lp32
g4
(g8
S'h\xb3\xeas\xb5\x15\xef?'
p33
tp34
Rp35
ag4
(g8
S' \xf1\r\x94\xf2\x11\xef?'
p36
tp37
Rp38
aF2.5157270431518555
aI5000
aS'kernel = 2 degree'
p39
ag4
(g8
S'j\xdeq\x8a\x8e\xe4\xee?'
p40
tp41
Rp42
ag4
(g8
S'"\x8d\xd2\x9d\x1f\xe0\xee?'
p43
tp44
Rp45
aF1.8983588218688965
aI5000
aS'kernel = 2 degree'
p46
ag4
(g8
S'\xde\x02\t\x8a\x1fc\xee?'
p47
tp48
Rp49
ag4
(g8
S'\x1a\\!\x12G^\xee?'
p50
tp51
Rp52
aF1.392514944076538
aI5000
aS'kernel = 2 degree'
p53
aa(lp54
g4
(g8
S'\n\xd7\xa3p=\n\xef?'
p55
tp56
Rp57
ag4
(g8
S'\x94\xea\xe8`r\x06\xef?'
p58
tp59
Rp60
aF1.9988059997558594
aI5000
aS'kernel = 2 degree'
p61
ag4
(g8
S'\xf2A\xcff\xd5\xe7\xee?'
p62
tp63
Rp64
ag4
(g8
S'6\xee\x05\xfeU\xe3\xee?'
p65
tp66
Rp67
aF1.690011978149414
aI5000
aS'kernel = 2 degree'
p68
ag4
(g8
S'!\x1f\xf4lV}\xee?'
p69
tp70
Rp71
ag4
(g8
S'\x9f\x84|n\x87w\xee?'
p72
tp73
Rp74
aF1.2396249771118164
aI5000
aS'kernel = 2 degree'
p75
aa(lp76
g4
(g8
S'\xe7\x1d\xa7\xe8H.\xef?'
p77
tp78
Rp79
ag4
(g8
S'\xdb\x0e\xe5l3.\xef?'
p80
tp81
Rp82
aF2.0207910537719727
aI5000
aS'kernel = 2 degree'
p83
ag4
(g8
S'\xe9H.\xff!\xfd\xee?'
p84
tp85
Rp86
ag4
(g8
S'`\xafm\xf8V\xfd\xee?'
p87
tp88
Rp89
aF1.6880559921264648
aI5000
aS'kernel = 2 degree'
p90
ag4
(g8
S'\xaa\x82QI\x9d\x80\xee?'
p91
tp92
Rp93
ag4
(g8
S'\xaa\x82QI\x9d\x80\xee?'
p94
tp95
Rp96
aF1.2321529388427734
aI5000
aS'kernel = 2 degree'
p97
aa(lp98
g4
(g8
S'\xc5\x8f1w-!\xef?'
p99
tp100
Rp101
ag4
(g8
S'\xa7O\xdb^_ \xef?'
p102
tp103
Rp104
aF2.1480929851531982
aI5000
aS'kernel = 2 degree'
p105
ag4
(g8
S'?W[\xb1\xbf\xec\xee?'
p106
tp107
Rp108
ag4
(g8
S'\xbe\x13 \xb4\xa4\xeb\xee?'
p109
tp110
Rp111
aF1.684464931488037
aI5000
aS'kernel = 2 degree'
p112
ag4
(g8
S'\xb3{\xf2\xb0Pk\xee?'
p113
tp114
Rp115
ag4
(g8
S'\xcawd\xd8 n\xee?'
p116
tp117
Rp118
aF1.2448830604553223
aI5000
aS'kernel = 2 degree'
p119
aa(lp120
g4
(g8
S'\xd8\x81sF\x94\xf6\xee?'
p121
tp122
Rp123
ag4
(g8
S'\xdb\xb5\xf42_\xf8\xee?'
p124
tp125
Rp126
aF1.999150037765503
aI5000
aS'kernel = 2 degree'
p127
ag4
(g8
S'\xaf%\xe4\x83\x9e\xcd\xee?'
p128
tp129
Rp130
ag4
(g8
S'?\xc0<\xa8\x05\xcf\xee?'
p131
tp132
Rp133
aF1.8200459480285645
aI5000
aS'kernel = 2 degree'
p134
ag4
(g8
S'4\x116<\xbdR\xee?'
p135
tp136
Rp137
ag4
(g8
S'2\xe7\xed\xca\xceU\xee?'
p138
tp139
Rp140
aF1.230422019958496
aI5000
aS'kernel = 2 degree'
p141
aa(lp142
g4
(g8
S'^\xbaI\x0c\x02+\xef?'
p143
tp144
Rp145
ag4
(g8
S'\x825\\K\x9a+\xef?'
p146
tp147
Rp148
aF2.008657932281494
aI5000
aS'kernel = 2 degree'
p149
ag4
(g8
S'\xf2A\xcff\xd5\xe7\xee?'
p150
tp151
Rp152
ag4
(g8
S'\xdf\x9f\xfe::\xe9\xee?'
p153
tp154
Rp155
aF1.677854061126709
aI5000
aS'kernel = 2 degree'
p156
ag4
(g8
S'E\xd8\xf0\xf4JY\xee?'
p157
tp158
Rp159
ag4
(g8
S'<4|\xd5#^\xee?'
p160
tp161
Rp162
aF1.2238869667053223
aI5000
aS'kernel = 2 degree'
p163
aa(lp164
g4
(g8
S'\x89A`\xe5\xd0"\xef?'
p165
tp166
Rp167
ag4
(g8
S'*\xf2Y7\x98"\xef?'
p168
tp169
Rp170
aF2.0041420459747314
aI5000
aS'kernel = 2 degree'
p171
ag4
(g8
S'\xa5,C\x1c\xeb\xe2\xee?'
p172
tp173
Rp174
ag4
(g8
S"&vb'v\xe2\xee?"
p175
tp176
Rp177
aF1.6729419231414795
aI5000
aS'kernel = 2 degree'
p178
ag4
(g8
S'\x00\x91~\xfb:p\xee?'
p179
tp180
Rp181
ag4
(g8
S'b\x8ak\xf9\x9fn\xee?'
p182
tp183
Rp184
aF1.2478630542755127
aI5000
aS'kernel = 2 degree'
p185
aa(lp186
g4
(g8
S'=,\xd4\x9a\xe6\x1d\xef?'
p187
tp188
Rp189
ag4
(g8
S'$-\x97\xc1\x05!\xef?'
p190
tp191
Rp192
aF2.0259270668029785
aI5000
aS'kernel = 2 degree'
p193
ag4
(g8
S'\xa5,C\x1c\xeb\xe2\xee?'
p194
tp195
Rp196
ag4
(g8
S'\x11|\x95\xcf/\xe7\xee?'
p197
tp198
Rp199
aF1.6954760551452637
aI5000
aS'kernel = 2 degree'
p200
ag4
(g8
S'\xe5\xd0"\xdb\xf9~\xee?'
p201
tp202
Rp203
ag4
(g8
S'N\x9c\x18\xa6M\x86\xee?'
p204
tp205
Rp206
aF1.2303318977355957
aI5000
aS'kernel = 2 degree'
p207
aa(lp208
g4
(g8
S'\xb4\xc8v\xbe\x9f\x1a\xef?'
p209
tp210
Rp211
ag4
(g8
S'\xc7q\x1c\xc7q\x1c\xef?'
p212
tp213
Rp214
aF2.001499891281128
aI5000
aS'kernel = 2 degree'
p215
ag4
(g8
S'\x0c\x02+\x87\x16\xd9\xee?'
p216
tp217
Rp218
ag4
(g8
S'\xb3\x14\xdc\xc5\xc6\xdb\xee?'
p219
tp220
Rp221
aF1.6753110885620117
aI5000
aS'kernel = 2 degree'
p222
ag4
(g8
S'ffffff\xee?'
p223
tp224
Rp225
ag4
(g8
S'\xf2\x87\xe1\xcc\x18k\xee?'
p226
tp227
Rp228
aF1.2226428985595703
aI5000
aS'kernel = 2 degree'
p229
aa(lp230
g4
(g8
S'\n\xd7\xa3p=\n\xef?'
p231
tp232
Rp233
ag4
(g8
S'\x94\xea\xe8`r\x06\xef?'
p234
tp235
Rp236
aF1.9990298748016357
aI5000
aS'kernel = 2 degree'
p237
ag4
(g8
S'\xf2A\xcff\xd5\xe7\xee?'
p238
tp239
Rp240
ag4
(g8
S'\x18\xfc~\xb5\x1a\xe3\xee?'
p241
tp242
Rp243
aF1.6819097995758057
aI5000
aS'kernel = 2 degree'
p244
ag4
(g8
S'+\x18\x95\xd4\th\xee?'
p245
tp246
Rp247
ag4
(g8
S'%U\x88jTb\xee?'
p248
tp249
Rp250
aF1.232457160949707
aI5000
aS'kernel = 2 degree'
p251
aa(lp252
g4
(g8
S'\xa3\x01\xbc\x05\x12\x14\xef?'
p253
tp254
Rp255
ag4
(g8
S'Qf\xac\xcdm\x10\xef?'
p256
tp257
Rp258
aF1.9310219287872314
aI5000
aS'kernel = 2 degree'
p259
ag4
(g8
S'z\xa5,C\x1c\xeb\xee?'
p260
tp261
Rp262
ag4
(g8
S'k\xee\xe1Q\xaa\xe6\xee?'
p263
tp264
Rp265
aF1.6118011474609375
aI5000
aS'kernel = 2 degree'
p266
ag4
(g8
S'\xcb\x10\xc7\xba\xb8\x8d\xee?'
p267
tp268
Rp269
ag4
(g8
S"'\xa6\x8c;\x8c\x87\xee?"
p270
tp271
Rp272
aF1.1995439529418945
aI5000
aS'kernel = 2 degree'
p273
aa(lp274
g4
(g8
S'\xb4\xc8v\xbe\x9f\x1a\xef?'
p275
tp276
Rp277
ag4
(g8
S'\xc6\x1f\xf2\xac\xc4\x1e\xef?'
p278
tp279
Rp280
aF1.9481050968170166
aI5000
aS'kernel = 2 degree'
p281
ag4
(g8
S'7\x89A`\xe5\xd0\xee?'
p282
tp283
Rp284
ag4
(g8
S'\xbd\xb4Bo\xf6\xd5\xee?'
p285
tp286
Rp287
aF1.6258800029754639
aI5000
aS'kernel = 2 degree'
p288
ag4
(g8
S'\xe7\xfb\xa9\xf1\xd2M\xee?'
p289
tp290
Rp291
ag4
(g8
S'\xb7u\xa9\xb2\x95U\xee?'
p292
tp293
Rp294
aF1.2005631923675537
aI5000
aS'kernel = 2 degree'
p295
aa(lp296
g4
(g8
S'h\xb3\xeas\xb5\x15\xef?'
p297
tp298
Rp299
ag4
(g8
S'\xafA\xc9\xf9\x00\x15\xef?'
p300
tp301
Rp302
aF1.9351589679718018
aI5000
aS'kernel = 2 degree'
p303
ag4
(g8
S'\xc7\xba\xb8\x8d\x06\xf0\xee?'
p304
tp305
Rp306
ag4
(g8
S'e#S\xbd\xb6\xee\xee?'
p307
tp308
Rp309
aF1.856726884841919
aI5000
aS'kernel = 2 degree'
p310
ag4
(g8
S'4\x116<\xbdR\xee?'
p311
tp312
Rp313
ag4
(g8
S'4\x116<\xbdR\xee?'
p314
tp315
Rp316
aF1.4299850463867188
aI5000
aS'kernel = 2 degree'
p317
aa(lp318
g4
(g8
S'\xab\xcf\xd5V\xec/\xef?'
p319
tp320
Rp321
ag4
(g8
S'\x07\xf9N\x9041\xef?'
p322
tp323
Rp324
aF1.9561309814453125
aI5000
aS'kernel = 2 degree'
p325
ag4
(g8
S'\x9c3\xa2\xb47\xf8\xee?'
p326
tp327
Rp328
ag4
(g8
S'\x16\xe6v\x0f\xc7\xfa\xee?'
p329
tp330
Rp331
aF1.6345250606536865
aI5000
aS'kernel = 2 degree'
p332
ag4
(g8
S'\xb3{\xf2\xb0Pk\xee?'
p333
tp334
Rp335
ag4
(g8
S'\xd9\xe8(\xb7Kq\xee?'
p336
tp337
Rp338
aF1.2075471878051758
aI5000
aS'kernel = 2 degree'
p339
aa(lp340
g4
(g8
S'\xbc\x96\x90\x0fz6\xef?'
p341
tp342
Rp343
ag4
(g8
S'o\xac\xdc\x8e\xd23\xef?'
p344
tp345
Rp346
aF1.953258991241455
aI5000
aS'kernel = 2 degree'
p347
ag4
(g8
S'F%u\x02\x9a\x08\xef?'
p348
tp349
Rp350
ag4
(g8
S"B5\x961'\x06\xef?"
p351
tp352
Rp353
aF1.638761043548584
aI5000
aS'kernel = 2 degree'
p354
ag4
(g8
S'n4\x80\xb7@\x82\xee?'
p355
tp356
Rp357
ag4
(g8
S'\x85\xe6\xb9$h\x7f\xee?'
p358
tp359
Rp360
aF1.2013969421386719
aI5000
aS'kernel = 2 degree'
p361
aa(lp362
g4
(g8
S'M\xf3\x8eSt$\xef?'
p363
tp364
Rp365
ag4
(g8
S'\x86m\x84\x89\xc3%\xef?'
p366
tp367
Rp368
aF1.931082010269165
aI5000
aS'kernel = 2 degree'
p369
ag4
(g8
S'\x9c3\xa2\xb47\xf8\xee?'
p370
tp371
Rp372
ag4
(g8
S"\xa2\xef\x89\xbe'\xfa\xee?"
p373
tp374
Rp375
aF1.6416850090026855
aI5000
aS'kernel = 2 degree'
p376
ag4
(g8
S'\xbct\x93\x18\x04V\xee?'
p377
tp378
Rp379
ag4
(g8
S'\x9eD\xa6a\xbbY\xee?'
p380
tp381
Rp382
aF1.1882591247558594
aI5000
aS'kernel = 2 degree'
p383
aa(lp384
g4
(g8
S'\x01\xde\x02\t\x8a\x1f\xef?'
p385
tp386
Rp387
ag4
(g8
S'\xa1j\x1f\x19\x11\x1a\xef?'
p388
tp389
Rp390
aF1.9515531063079834
aI5000
aS'kernel = 2 degree'
p391
ag4
(g8
S'?W[\xb1\xbf\xec\xee?'
p392
tp393
Rp394
ag4
(g8
S'\x8fX\x1b\xfeH\xe5\xee?'
p395
tp396
Rp397
aF1.6500110626220703
aI5000
aS'kernel = 2 degree'
p398
ag4
(g8
S'\xa2\xb47\xf8\xc2d\xee?'
p399
tp400
Rp401
ag4
(g8
S'(\x00\xa1\xff2V\xee?'
p402
tp403
Rp404
aF1.4292540550231934
aI5000
aS'kernel = 2 degree'
p405
aa(lp406
g4
(g8
S'^\xbaI\x0c\x02+\xef?'
p407
tp408
Rp409
ag4
(g8
S'\x90]j&4)\xef?'
p410
tp411
Rp412
aF1.9471938610076904
aI5000
aS'kernel = 2 degree'
p413
ag4
(g8
S'\xf9\x0f\xe9\xb7\xaf\x03\xef?'
p414
tp415
Rp416
ag4
(g8
S'7"A\xaa\x0f\x02\xef?'
p417
tp418
Rp419
aF1.853344202041626
aI5000
aS'kernel = 2 degree'
p420
ag4
(g8
S'\xde\x02\t\x8a\x1fc\xee?'
p421
tp422
Rp423
ag4
(g8
S'?\xf5b>\xf5b\xee?'
p424
tp425
Rp426
aF1.206841230392456
aI5000
aS'kernel = 2 degree'
p427
aa(lp428
g4
(g8
S'5^\xbaI\x0c\x02\xef?'
p429
tp430
Rp431
ag4
(g8
S'\x04\xeff\xf2|\x01\xef?'
p432
tp433
Rp434
aF1.9638149738311768
aI5000
aS'kernel = 2 degree'
p435
ag4
(g8
S'7\x89A`\xe5\xd0\xee?'
p436
tp437
Rp438
ag4
(g8
S'\xc6\xb6\xa4\xe7\x13\xd1\xee?'
p439
tp440
Rp441
aF1.6385619640350342
aI5000
aS'kernel = 2 degree'
p442
ag4
(g8
S'\xf1\xf4JY\x868\xee?'
p443
tp444
Rp445
ag4
(g8
S'\xa3+-\x16o9\xee?'
p446
tp447
Rp448
aF1.1905021667480469
aI5000
aS'kernel = 2 degree'
p449
aa(lp450
g4
(g8
S'\x01\xde\x02\t\x8a\x1f\xef?'
p451
tp452
Rp453
ag4
(g8
S'\xa1j\x1f\x19\x11\x1a\xef?'
p454
tp455
Rp456
aF1.9580321311950684
aI5000
aS'kernel = 2 degree'
p457
ag4
(g8
S'\xe1z\x14\xaeG\xe1\xee?'
p458
tp459
Rp460
ag4
(g8
S'\xa5\xc3\x92\xe4\xe3\xda\xee?'
p461
tp462
Rp463
aF1.6335480213165283
aI5000
aS'kernel = 2 degree'
p464
ag4
(g8
S'_\x98L\x15\x8cJ\xee?'
p465
tp466
Rp467
ag4
(g8
S'\xb7\xc0?\x01XC\xee?'
p468
tp469
Rp470
aF1.2089169025421143
aI5000
aS'kernel = 2 degree'
p471
aa(lp472
g4
(g8
S'xz\xa5,C\x1c\xef?'
p473
tp474
Rp475
ag4
(g8
S'6\x8de\xed\xab\x1c\xef?'
p476
tp477
Rp478
aF2.1650989055633545
aI5000
aS'kernel = 2 degree'
p479
ag4
(g8
S'\xa5,C\x1c\xeb\xe2\xee?'
p480
tp481
Rp482
ag4
(g8
S'\xb6\xc1\xe5\xe2\xb6\xe3\xee?'
p483
tp484
Rp485
aF1.626288890838623
aI5000
aS'kernel = 2 degree'
p486
ag4
(g8
S'\xcd;N\xd1\x91\\\xee?'
p487
tp488
Rp489
ag4
(g8
S'\xd1\x8c7\xa0\xbd]\xee?'
p490
tp491
Rp492
aF1.2100529670715332
aI5000
aS'kernel = 2 degree'
p493
aa(lp494
g4
(g8
S'h\xb3\xeas\xb5\x15\xef?'
p495
tp496
Rp497
ag4
(g8
S'\xafA\xc9\xf9\x00\x15\xef?'
p498
tp499
Rp500
aF2.1637020111083984
aI5000
aS'kernel = 2 degree'
p501
ag4
(g8
S'z\xa5,C\x1c\xeb\xee?'
p502
tp503
Rp504
ag4
(g8
S'\xa9\xa8{o*\xea\xee?'
p505
tp506
Rp507
aF1.625514030456543
aI5000
aS'kernel = 2 degree'
p508
ag4
(g8
S'2\xe6\xae%\xe4\x83\xee?'
p509
tp510
Rp511
ag4
(g8
S'\x00\x88\x16m\x8e\x85\xee?'
p512
tp513
Rp514
aF1.1967949867248535
aI5000
aS'kernel = 2 degree'
p515
aa(lp516
g4
(g8
S'\x9a\x08\x1b\x9e^)\xef?'
p517
tp518
Rp519
ag4
(g8
S'\xb7\xec\x0c.\xb1*\xef?'
p520
tp521
Rp522
aF1.9710381031036377
aI5000
aS'kernel = 2 degree'
p523
ag4
(g8
S'\n\xd7\xa3p=\n\xef?'
p524
tp525
Rp526
ag4
(g8
S'5\xe9W\x88\xcd\x0b\xef?'
p527
tp528
Rp529
aF1.6367979049682617
aI5000
aS'kernel = 2 degree'
p530
ag4
(g8
S'L\xa6\nF%u\xee?'
p531
tp532
Rp533
ag4
(g8
S'\n\xab\x10\x83Iy\xee?'
p534
tp535
Rp536
aF1.1957588195800781
aI5000
aS'kernel = 2 degree'
p537
aa(lp538
g4
(g8
S'\xb4\xc8v\xbe\x9f\x1a\xef?'
p539
tp540
Rp541
ag4
(g8
S'v\xa6\xeb)\x15\x1c\xef?'
p542
tp543
Rp544
aF1.9615280628204346
aI5000
aS'kernel = 2 degree'
p545
ag4
(g8
S'\xe1z\x14\xaeG\xe1\xee?'
p546
tp547
Rp548
ag4
(g8
S'\xc1^y\xc5\x7f\xe3\xee?'
p549
tp550
Rp551
aF1.6391499042510986
aI5000
aS'kernel = 2 degree'
p552
ag4
(g8
S'Tt$\x97\xff\x90\xee?'
p553
tp554
Rp555
ag4
(g8
S':\x1f\xef\x9a\xc7\x95\xee?'
p556
tp557
Rp558
aF1.2154359817504883
aI5000
aS'kernel = 2 degree'
p559
aa(lp560
g4
(g8
S';\x01M\x84\rO\xef?'
p561
tp562
Rp563
ag4
(g8
S'6\xfa\xa9oVM\xef?'
p564
tp565
Rp566
aF1.961745023727417
aI5000
aS'kernel = 2 degree'
p567
ag4
(g8
S'"lxz\xa5,\xef?'
p568
tp569
Rp570
ag4
(g8
S':F\x16\x10(+\xef?'
p571
tp572
Rp573
aF1.6462960243225098
aI5000
aS'kernel = 2 degree'
p574
ag4
(g8
S'\xfee\xf7\xe4a\xa1\xee?'
p575
tp576
Rp577
ag4
(g8
S'\x0c\x08\x01\xf3\xd6\x9e\xee?'
p578
tp579
Rp580
aF1.3072161674499512
aI5000
aS'kernel = 2 degree'
p581
aa(lp582
g4
(g8
S'\xa3\x01\xbc\x05\x12\x14\xef?'
p583
tp584
Rp585
ag4
(g8
S']\xe7=\x9a~\x11\xef?'
p586
tp587
Rp588
aF1.9557609558105469
aI5000
aS'kernel = 2 degree'
p589
ag4
(g8
S'Y\x17\xb7\xd1\x00\xde\xee?'
p590
tp591
Rp592
ag4
(g8
S'\x97\x07\x8d3\xb9\xdb\xee?'
p593
tp594
Rp595
aF1.6321501731872559
aI5000
aS'kernel = 2 degree'
p596
ag4
(g8
S'ffffff\xee?'
p597
tp598
Rp599
ag4
(g8
S'\xc0\xa0\xfau\xc3b\xee?'
p600
tp601
Rp602
aF1.205672025680542
aI5000
aS'kernel = 2 degree'
p603
aa(lp604
g4
(g8
S'o\x81\x04\xc5\x8f1\xef?'
p605
tp606
Rp607
ag4
(g8
S'0Y\xfe\x92\xe5/\xef?'
p608
tp609
Rp610
aF1.9522628784179688
aI5000
aS'kernel = 2 degree'
p611
ag4
(g8
S'`\xe5\xd0"\xdb\xf9\xee?'
p612
tp613
Rp614
ag4
(g8
S'a\xe4n\xdf*\xf8\xee?'
p615
tp616
Rp617
aF1.6251049041748047
aI5000
aS'kernel = 2 degree'
p618
ag4
(g8
S'\xa0\x89\xb0\xe1\xe9\x95\xee?'
p619
tp620
Rp621
ag4
(g8
S"\xf0'\xe1\x0e\xa0\x92\xee?"
p622
tp623
Rp624
aF1.197700023651123
aI5000
aS'kernel = 2 degree'
p625
aa(lp626
g4
(g8
S'\xce\x88\xd2\xde\xe0\x0b\xef?'
p627
tp628
Rp629
ag4
(g8
S'N\xb5\xe3\xf3a\r\xef?'
p630
tp631
Rp632
aF2.1492278575897217
aI5000
aS'kernel = 2 degree'
p633
ag4
(g8
S'z\xa5,C\x1c\xeb\xee?'
p634
tp635
Rp636
ag4
(g8
S'\xf8\xb5\x9b\xbaD\xec\xee?'
p637
tp638
Rp639
aF1.6143949031829834
aI5000
aS'kernel = 2 degree'
p640
ag4
(g8
S'!\x1f\xf4lV}\xee?'
p641
tp642
Rp643
ag4
(g8
S'J\x91\xfe\x8c\xa5}\xee?'
p644
tp645
Rp646
aF1.1960439682006836
aI5000
aS'kernel = 2 degree'
p647
aa(lp648
g4
(g8
S'o\x81\x04\xc5\x8f1\xef?'
p649
tp650
Rp651
ag4
(g8
S'r\xed\xc0\\;0\xef?'
p652
tp653
Rp654
aF1.9429619312286377
aI5000
aS'kernel = 2 degree'
p655
ag4
(g8
S'\xad\xfa\\m\xc5\xfe\xee?'
p656
tp657
Rp658
ag4
(g8
S'\xaa\xdc\xc3co\xfc\xee?'
p659
tp660
Rp661
aF1.6266100406646729
aI5000
aS'kernel = 2 degree'
p662
ag4
(g8
S'\x00\x91~\xfb:p\xee?'
p663
tp664
Rp665
ag4
(g8
S'\xa6\xe5\xff\x06$n\xee?'
p666
tp667
Rp668
aF1.206800937652588
aI5000
aS'kernel = 2 degree'
p669
aa(lp670
g4
(g8
S'xz\xa5,C\x1c\xef?'
p671
tp672
Rp673
ag4
(g8
S';\xe8\xeaM\x9d\x16\xef?'
p674
tp675
Rp676
aF1.9380319118499756
aI5000
aS'kernel = 2 degree'
p677
ag4
(g8
S'?W[\xb1\xbf\xec\xee?'
p678
tp679
Rp680
ag4
(g8
S'\x97`o\x8a\x18\xe6\xee?'
p681
tp682
Rp683
aF1.5571651458740234
aI5000
aS'kernel = 2 degree'
p684
ag4
(g8
S'\xa2\xb47\xf8\xc2d\xee?'
p685
tp686
Rp687
ag4
(g8
S'\xd7#\x18f\xa7X\xee?'
p688
tp689
Rp690
aF1.204556941986084
aI5000
aS'kernel = 2 degree'
p691
aa(lp692
g4
(g8
S'\xf7\xe4a\xa1\xd64\xef?'
p693
tp694
Rp695
ag4
(g8
S'_\xb4\xd2\xefg7\xef?'
p696
tp697
Rp698
aF1.950584888458252
aI5000
aS'kernel = 2 degree'
p699
ag4
(g8
S'?W[\xb1\xbf\xec\xee?'
p700
tp701
Rp702
ag4
(g8
S'7\x96A\xa90\xf1\xee?'
p703
tp704
Rp705
aF1.6401948928833008
aI5000
aS'kernel = 2 degree'
p706
ag4
(g8
S'ffffff\xee?'
p707
tp708
Rp709
ag4
(g8
S'\xd6\xe2&\xcc\xefj\xee?'
p710
tp711
Rp712
aF1.1957149505615234
aI5000
aS'kernel = 2 degree'
p713
aa(lp714
g4
(g8
S'\xab\xcf\xd5V\xec/\xef?'
p715
tp716
Rp717
ag4
(g8
S'\x07J\xf0\x9e^1\xef?'
p718
tp719
Rp720
aF1.968498945236206
aI5000
aS'kernel = 2 degree'
p721
ag4
(g8
S'$\x97\xff\x90~\xfb\xee?'
p722
tp723
Rp724
ag4
(g8
S'\x02\xe3\xa9\xd43\xfd\xee?'
p725
tp726
Rp727
aF1.6447360515594482
aI5000
aS'kernel = 2 degree'
p728
ag4
(g8
S']m\xc5\xfe\xb2{\xee?'
p729
tp730
Rp731
ag4
(g8
S'#\xa7\xe1\xa2\xc5\x7f\xee?'
p732
tp733
Rp734
aF1.1998870372772217
aI5000
aS'kernel = 2 degree'
p735
aa(lp736
g4
(g8
S'=,\xd4\x9a\xe6\x1d\xef?'
p737
tp738
Rp739
ag4
(g8
S'\xe5\xf8\x11ZI\x19\xef?'
p740
tp741
Rp742
aF1.9372389316558838
aI5000
aS'kernel = 2 degree'
p743
ag4
(g8
S'\x03\t\x8a\x1fc\xee\xee?'
p744
tp745
Rp746
ag4
(g8
S'/\x80\xab\xbam\xe9\xee?'
p747
tp748
Rp749
aF1.6190619468688965
aI5000
aS'kernel = 2 degree'
p750
ag4
(g8
S'\xcb\x10\xc7\xba\xb8\x8d\xee?'
p751
tp752
Rp753
ag4
(g8
S'\xe6\x7f>\x8a\xd4\x89\xee?'
p754
tp755
Rp756
aF1.2076849937438965
aI5000
aS'kernel = 2 degree'
p757
aa(lp758
g4
(g8
S'h\xb3\xeas\xb5\x15\xef?'
p759
tp760
Rp761
ag4
(g8
S'\xafA\xc9\xf9\x00\x15\xef?'
p762
tp763
Rp764
aF1.934000015258789
aI5000
aS'kernel = 2 degree'
p765
ag4
(g8
S'\xc7\xba\xb8\x8d\x06\xf0\xee?'
p766
tp767
Rp768
ag4
(g8
S'\xc7\xba\xb8\x8d\x06\xf0\xee?'
p769
tp770
Rp771
aF1.621155023574829
aI5000
aS'kernel = 2 degree'
p772
ag4
(g8
S'2\xe6\xae%\xe4\x83\xee?'
p773
tp774
Rp775
ag4
(g8
S'\x1fK\xa8\xf1\xfa\x80\xee?'
p776
tp777
Rp778
aF1.1999869346618652
aI5000
aS'kernel = 2 degree'
p779
aa(lp780
g4
(g8
S'\x89A`\xe5\xd0"\xef?'
p781
tp782
Rp783
ag4
(g8
S'n\xe1\x8f\xb6\xe5 \xef?'
p784
tp785
Rp786
aF1.9460678100585938
aI5000
aS'kernel = 2 degree'
p787
ag4
(g8
S'\xb6\xf3\xfd\xd4x\xe9\xee?'
p788
tp789
Rp790
ag4
(g8
S'\xe7\x9cs\xce9\xe7\xee?'
p791
tp792
Rp793
aF1.6261441707611084
aI5000
aS'kernel = 2 degree'
p794
ag4
(g8
S'\xa0\x89\xb0\xe1\xe9\x95\xee?'
p795
tp796
Rp797
ag4
(g8
S'\x98mk\x81\xeb\x92\xee?'
p798
tp799
Rp800
aF1.204308032989502
aI5000
aS'kernel = 2 degree'
p801
aa(lp802
g4
(g8
S',e\x19\xe2X\x17\xef?'
p803
tp804
Rp805
ag4
(g8
S'\x931\x19\x931\x19\xef?'
p806
tp807
Rp808
aF1.9607257843017578
aI5000
aS'kernel = 2 degree'
p809
ag4
(g8
S'$\x97\xff\x90~\xfb\xee?'
p810
tp811
Rp812
ag4
(g8
S'\xd4\xef\xb9%N\xfd\xee?'
p813
tp814
Rp815
aF1.626396894454956
aI5000
aS'kernel = 2 degree'
p816
ag4
(g8
S'4\x116<\xbdR\xee?'
p817
tp818
Rp819
ag4
(g8
S'\x93\xaf\xfa\x93\x98S\xee?'
p820
tp821
Rp822
aF1.209414005279541
aI5000
aS'kernel = 2 degree'
p823
aa(lp824
g4
(g8
S'\xb4\xc8v\xbe\x9f\x1a\xef?'
p825
tp826
Rp827
ag4
(g8
S'v\xa6\xeb)\x15\x1c\xef?'
p828
tp829
Rp830
aF1.9493720531463623
aI5000
aS'kernel = 2 degree'
p831
ag4
(g8
S'\xad\xfa\\m\xc5\xfe\xee?'
p832
tp833
Rp834
ag4
(g8
S'\x9975R^\x01\xef?'
p835
tp836
Rp837
aF1.6364829540252686
aI5000
aS'kernel = 2 degree'
p838
ag4
(g8
S'\xa2\xb47\xf8\xc2d\xee?'
p839
tp840
Rp841
ag4
(g8
S'\xcbU\x08L\xc8g\xee?'
p842
tp843
Rp844
aF1.2062602043151855
aI5000
aS'kernel = 2 degree'
p845
aa(lp846
g4
(g8
S'\n\xd7\xa3p=\n\xef?'
p847
tp848
Rp849
ag4
(g8
S'\x94\xea\xe8`r\x06\xef?'
p850
tp851
Rp852
aF1.9321620464324951
aI5000
aS'kernel = 2 degree'
p853
ag4
(g8
S'\xa5,C\x1c\xeb\xe2\xee?'
p854
tp855
Rp856
ag4
(g8
S'\xf7\xf9\x01\x91f\xde\xee?'
p857
tp858
Rp859
aF1.611063003540039
aI5000
aS'kernel = 2 degree'
p860
ag4
(g8
S'\x1aQ\xda\x1b|a\xee?'
p861
tp862
Rp863
ag4
(g8
S'W\xfdv\x92\x1cY\xee?'
p864
tp865
Rp866
aF1.2025060653686523
aI5000
aS'kernel = 2 degree'
p867
aa(lp868
g4
(g8
S'5^\xbaI\x0c\x02\xef?'
p869
tp870
Rp871
ag4
(g8
S'\x04\xeff\xf2|\x01\xef?'
p872
tp873
Rp874
aF1.9555621147155762
aI5000
aS'kernel = 2 degree'
p875
ag4
(g8
S'\x1d\xc9\xe5?\xa4\xdf\xee?'
p876
tp877
Rp878
ag4
(g8
S'\xf1&\x82%i\xdf\xee?'
p879
tp880
Rp881
aF1.6235809326171875
aI5000
aS'kernel = 2 degree'
p882
ag4
(g8
S'!\x1f\xf4lV}\xee?'
p883
tp884
Rp885
ag4
(g8
S'"\xc9\x92\x02Q{\xee?'
p886
tp887
Rp888
aF1.2026019096374512
aI5000
aS'kernel = 2 degree'
p889
aa(lp890
g4
(g8
S'xz\xa5,C\x1c\xef?'
p891
tp892
Rp893
ag4
(g8
S'6\x8de\xed\xab\x1c\xef?'
p894
tp895
Rp896
aF1.940722942352295
aI5000
aS'kernel = 2 degree'
p897
ag4
(g8
S'\xe1z\x14\xaeG\xe1\xee?'
p898
tp899
Rp900
ag4
(g8
S'\x87\x99\x9a\x8b]\xe2\xee?'
p901
tp902
Rp903
aF1.6263659000396729
aI5000
aS'kernel = 2 degree'
p904
ag4
(g8
S'\xef\xc9\xc3B\xadi\xee?'
p905
tp906
Rp907
ag4
(g8
S'\x90\x06i\x90\x06i\xee?'
p908
tp909
Rp910
aF1.2033860683441162
aI5000
aS'kernel = 2 degree'
p911
aa(lp912
g4
(g8
S'\xa3\x01\xbc\x05\x12\x14\xef?'
p913
tp914
Rp915
ag4
(g8
S'Qf\xac\xcdm\x10\xef?'
p916
tp917
Rp918
aF1.9247369766235352
aI5000
aS'kernel = 2 degree'
p919
ag4
(g8
S'\x0c\x02+\x87\x16\xd9\xee?'
p920
tp921
Rp922
ag4
(g8
S'\xa5{f\xa1C\xd5\xee?'
p923
tp924
Rp925
aF1.6038269996643066
aI5000
aS'kernel = 2 degree'
p926
ag4
(g8
S';\xdfO\x8d\x97n\xee?'
p927
tp928
Rp929
ag4
(g8
S'\xa4\xf8*\x8f\xa6f\xee?'
p930
tp931
Rp932
aF1.1889410018920898
aI5000
aS'kernel = 2 degree'
p933
aa(lp934
g4
(g8
S'\xe9H.\xff!\xfd\xee?'
p935
tp936
Rp937
ag4
(g8
S'\xcc\xb7|\xcb\xb7\xfc\xee?'
p938
tp939
Rp940
aF1.927839994430542
aI5000
aS'kernel = 2 degree'
p941
ag4
(g8
S'.\x90\xa0\xf81\xe6\xee?'
p942
tp943
Rp944
ag4
(g8
S'\xeb\x8b\x18p\x88\xe6\xee?'
p945
tp946
Rp947
aF1.611814022064209
aI5000
aS'kernel = 2 degree'
p948
ag4
(g8
S'=\n\xd7\xa3p=\xee?'
p949
tp950
Rp951
ag4
(g8
S'i1\xc3\\7@\xee?'
p952
tp953
Rp954
aF1.1968669891357422
aI5000
aS'kernel = 2 degree'
p955
aa(lp956
g4
(g8
S'\x08\xac\x1cZd;\xef?'
p957
tp958
Rp959
ag4
(g8
S'\t]\x05V\xf79\xef?'
p960
tp961
Rp962
aF1.9593310356140137
aI5000
aS'kernel = 2 degree'
p963
ag4
(g8
S'\x1b\x9e^)\xcb\x10\xef?'
p964
tp965
Rp966
ag4
(g8
S'\xe9\xdfE\x95.\x0e\xef?'
p967
tp968
Rp969
aF1.6248421669006348
aI5000
aS'kernel = 2 degree'
p970
ag4
(g8
S'\x91\xed|?5^\xee?'
p971
tp972
Rp973
ag4
(g8
S'\xa3\x91\x99\x1c8Y\xee?'
p974
tp975
Rp976
aF1.196605920791626
aI5000
aS'kernel = 2 degree'
p977
aa(lp978
g4
(g8
S'\x9a\x08\x1b\x9e^)\xef?'
p979
tp980
Rp981
ag4
(g8
S'm\xcc\xa8\xdfv(\xef?'
p982
tp983
Rp984
aF1.9425380229949951
aI5000
aS'kernel = 2 degree'
p985
ag4
(g8
S'O\x1e\x16jM\xf3\xee?'
p986
tp987
Rp988
ag4
(g8
S'\x7f*\xef\xed\xa7\xf2\xee?'
p989
tp990
Rp991
aF1.6336359977722168
aI5000
aS'kernel = 2 degree'
p992
ag4
(g8
S'\x1aQ\xda\x1b|a\xee?'
p993
tp994
Rp995
ag4
(g8
S"\xe6'!\reb\xee?"
p996
tp997
Rp998
aF1.1898560523986816
aI5000
aS'kernel = 2 degree'
p999
aa(lp1000
g4
(g8
S'\x89A`\xe5\xd0"\xef?'
p1001
tp1002
Rp1003
ag4
(g8
S'*\xf2Y7\x98"\xef?'
p1004
tp1005
Rp1006
aF1.938633918762207
aI5000
aS'kernel = 2 degree'
p1007
ag4
(g8
S'\x03\t\x8a\x1fc\xee\xee?'
p1008
tp1009
Rp1010
ag4
(g8
S'\xd9\xfa+~\xca\xec\xee?'
p1011
tp1012
Rp1013
aF1.6147098541259766
aI5000
aS'kernel = 2 degree'
p1014
ag4
(g8
S'\t\x8a\x1fc\xeeZ\xee?'
p1015
tp1016
Rp1017
ag4
(g8
S'T\x84\x15\xac\xadZ\xee?'
p1018
tp1019
Rp1020
aF1.1949589252471924
aI5000
aS'kernel = 2 degree'
p1021
aa(lp1022
g4
(g8
S'"lxz\xa5,\xef?'
p1023
tp1024
Rp1025
ag4
(g8
S'\xb6Y\xe2\xca\xc7.\xef?'
p1026
tp1027
Rp1028
aF1.9676198959350586
aI5000
aS'kernel = 2 degree'
p1029
ag4
(g8
S'q\xac\x8b\xdbh\x00\xef?'
p1030
tp1031
Rp1032
ag4
(g8
S'`\\\xfd\xa0\xa3\x02\xef?'
p1033
tp1034
Rp1035
aF1.6227550506591797
aI5000
aS'kernel = 2 degree'
p1036
ag4
(g8
S'C\xadi\xdeq\x8a\xee?'
p1037
tp1038
Rp1039
ag4
(g8
S').8u\xba\x8e\xee?'
p1040
tp1041
Rp1042
aF1.1973648071289062
aI5000
aS'kernel = 2 degree'
p1043
aa(lp1044
g4
(g8
S'\xe9H.\xff!\xfd\xee?'
p1045
tp1046
Rp1047
ag4
(g8
S'\xcc\xb7|\xcb\xb7\xfc\xee?'
p1048
tp1049
Rp1050
aF1.9266510009765625
aI5000
aS'kernel = 2 degree'
p1051
ag4
(g8
S'\xd0\xb3Y\xf5\xb9\xda\xee?'
p1052
tp1053
Rp1054
ag4
(g8
S'\x02,l\xfa\xe6\xda\xee?'
p1055
tp1056
Rp1057
aF1.6151180267333984
aI5000
aS'kernel = 2 degree'
p1058
ag4
(g8
S'\xcd;N\xd1\x91\\\xee?'
p1059
tp1060
Rp1061
ag4
(g8
S'\xa8\xc4\xf5\xa5\xe7\\\xee?'
p1062
tp1063
Rp1064
aF1.1800971031188965
aI5000
aS'kernel = 2 degree'
p1065
aa(lp1066
g4
(g8
S'\x01\xde\x02\t\x8a\x1f\xef?'
p1067
tp1068
Rp1069
ag4
(g8
S'\xa1\x93\x86\xa5\xdd\x1d\xef?'
p1070
tp1071
Rp1072
aF1.9329910278320312
aI5000
aS'kernel = 2 degree'
p1073
ag4
(g8
S'\xd8\x81sF\x94\xf6\xee?'
p1074
tp1075
Rp1076
ag4
(g8
S'\x16\xc77\x11\xc3\xf4\xee?'
p1077
tp1078
Rp1079
aF1.6274499893188477
aI5000
aS'kernel = 2 degree'
p1080
ag4
(g8
S'+\x18\x95\xd4\th\xee?'
p1081
tp1082
Rp1083
ag4
(g8
S'\xce]|\xf5Se\xee?'
p1084
tp1085
Rp1086
aF1.1890950202941895
aI5000
aS'kernel = 2 degree'
p1087
aa(lp1088
g4
(g8
S'=,\xd4\x9a\xe6\x1d\xef?'
p1089
tp1090
Rp1091
ag4
(g8
S'$-\x97\xc1\x05!\xef?'
p1092
tp1093
Rp1094
aF1.9532771110534668
aI5000
aS'kernel = 2 degree'
p1095
ag4
(g8
S'?W[\xb1\xbf\xec\xee?'
p1096
tp1097
Rp1098
ag4
(g8
S'\xdf\xd5\xe2&\xcc\xef\xee?'
p1099
tp1100
Rp1101
aF1.6359319686889648
aI5000
aS'kernel = 2 degree'
p1102
ag4
(g8
S';\xdfO\x8d\x97n\xee?'
p1103
tp1104
Rp1105
ag4
(g8
S'F\x9e~\x98\x13v\xee?'
p1106
tp1107
Rp1108
aF1.2032852172851562
aI5000
aS'kernel = 2 degree'
p1109
aas.