(dp0
S'segment'
p1
(lp2
(lp3
cnumpy.core.multiarray
scalar
p4
(cnumpy
dtype
p5
(S'f8'
p6
I0
I1
tp7
Rp8
(I3
S'<'
p9
NNNI-1
I-1
I0
tp10
bS'\x9doB\x15\xe8\xba\xed?'
p11
tp12
Rp13
ag4
(g8
S'm\xf3L3"l\xed?'
p14
tp15
Rp16
aF0.15281009674072266
aI578
aS'kernel = 1 degree'
p17
ag4
(g8
S'e\xce7\xa1\nt\xed?'
p18
tp19
Rp20
ag4
(g8
S'\xa6=\x91\x81\xf4\xfe\xec?'
p21
tp22
Rp23
aF0.13457512855529785
aI578
aS'kernel = 1 degree'
p24
ag4
(g8
S'\x88\xa6\xc4\xe2\x00\x1f\xed?'
p25
tp26
Rp27
ag4
(g8
S'x\xe9&1\x08\xac\xec?'
p28
tp29
Rp30
aF0.09948897361755371
aI578
aS'kernel = 1 degree'
p31
aa(lp32
g4
(g8
S'e\xce7\xa1\nt\xed?'
p33
tp34
Rp35
ag4
(g8
S'\xdd0\xf2\xdc0\xf2\xec?'
p36
tp37
Rp38
aF0.1465740203857422
aI578
aS'kernel = 1 degree'
p39
ag4
(g8
S'\xd2\xb3\x95wY;\xed?'
p40
tp41
Rp42
ag4
(g8
S'\x95\xcc\xcf\xa2\x18\xa7\xec?'
p43
tp44
Rp45
aF0.13180994987487793
aI578
aS'kernel = 1 degree'
p46
ag4
(g8
S'\xf3.k\xa7\xe3\x1f\xec?'
p47
tp48
Rp49
ag4
(g8
S'VUUUUU\xeb?'
p50
tp51
Rp52
aF0.10300803184509277
aI578
aS'kernel = 1 degree'
p53
aa(lp54
g4
(g8
S'\x97\xb5\xd3\xf1\x0f.\xec?'
p55
tp56
Rp57
ag4
(g8
S"P'0.\x12\xc3\xeb?"
p58
tp59
Rp60
aF0.10718894004821777
aI578
aS'kernel = 1 degree'
p61
ag4
(g8
S'\x88\xa6\xc4\xe2\x00\x1f\xed?'
p62
tp63
Rp64
ag4
(g8
S'\xad\xa3\xcd\xfb\x14\x97\xec?'
p65
tp66
Rp67
aF0.1199338436126709
aI578
aS'kernel = 1 degree'
p68
ag4
(g8
S'w:\xfe\xc1\x85I\xed?'
p69
tp70
Rp71
ag4
(g8
S'\xef\xab1\x91\x1e\xa8\xec?'
p72
tp73
Rp74
aF0.05257701873779297
aI578
aS'kernel = 1 degree'
p75
aa(lp76
g4
(g8
S'Sbq\x80\x8f\x9e\xed?'
p77
tp78
Rp79
ag4
(g8
S'\x15\xd5UTWQ\xed?'
p80
tp81
Rp82
aF0.060624122619628906
aI578
aS'kernel = 1 degree'
p83
ag4
(g8
S'B\xf6\xaa_\x14\xc9\xed?'
p84
tp85
Rp86
ag4
(g8
S'v\xd8\xb7\xc2i\x87\xed?'
p87
tp88
Rp89
aF0.05505084991455078
aI578
aS'kernel = 1 degree'
p90
ag4
(g8
S'\xe6|\x13\xaa@\xd7\xed?'
p91
tp92
Rp93
ag4
(g8
S'a\x96\xb9{R\x8c\xed?'
p94
tp95
Rp96
aF0.031562089920043945
aI578
aS'kernel = 1 degree'
p97
aa(lp98
g4
(g8
S'\x8b\x03|\xf4l\xe5\xed?'
p99
tp100
Rp101
ag4
(g8
S'3\x9c\xd4}yl\xed?'
p102
tp103
Rp104
aF0.03641796112060547
aI578
aS'kernel = 1 degree'
p105
ag4
(g8
S'\nU\xa0\xeb6\x82\xed?'
p106
tp107
Rp108
ag4
(g8
S'la,^\xa2\xf4\xec?'
p109
tp110
Rp111
aF0.03429412841796875
aI578
aS'kernel = 1 degree'
p112
ag4
(g8
S'<<<<<<\xec?'
p113
tp114
Rp115
ag4
(g8
S'/\xe2D\xe5i\xa1\xeb?'
p116
tp117
Rp118
aF0.03165006637573242
aI578
aS'kernel = 1 degree'
p119
aa(lp120
g4
(g8
S'\nU\xa0\xeb6\x82\xed?'
p121
tp122
Rp123
ag4
(g8
S'\x80\x85Y\x8d"\x0e\xed?'
p124
tp125
Rp126
aF0.06018686294555664
aI578
aS'kernel = 1 degree'
p127
ag4
(g8
S'`\x14\xc9}2\xe7\xeb?'
p128
tp129
Rp130
ag4
(g8
S':\xe7\x9cs\xce9\xeb?'
p131
tp132
Rp133
aF0.05606889724731445
aI578
aS'kernel = 1 degree'
p134
ag4
(g8
S'e\xce7\xa1\nt\xed?'
p135
tp136
Rp137
ag4
(g8
S'\xef\xee\xee\xee\xee\xee\xec?'
p138
tp139
Rp140
aF0.05100202560424805
aI578
aS'kernel = 1 degree'
p141
aa(lp142
g4
(g8
S'Sbq\x80\x8f\x9e\xed?'
p143
tp144
Rp145
ag4
(g8
S'\x15\xd5UTWQ\xed?'
p146
tp147
Rp148
aF0.05904793739318848
aI578
aS'kernel = 1 degree'
p149
ag4
(g8
S'\xcd\xf9&T\x81\xae\xeb?'
p150
tp151
Rp152
ag4
(g8
S'\x0b\xb6`\x0b\xb6`\xeb?'
p153
tp154
Rp155
aF0.034562110900878906
aI578
aS'kernel = 1 degree'
p156
ag4
(g8
S'\x9a\x12\x8b\x03|\xf4\xec?'
p157
tp158
Rp159
ag4
(g8
S'\x89\x02\x93N\xcd\x83\xec?'
p160
tp161
Rp162
aF0.05016899108886719
aI578
aS'kernel = 1 degree'
p163
aa(lp164
g4
(g8
S'\xd2\xb3\x95wY;\xed?'
p165
tp166
Rp167
ag4
(g8
S'H\xc5\xdc\xea\x8cT\xec?'
p168
tp169
Rp170
aF0.06067609786987305
aI578
aS'kernel = 1 degree'
p171
ag4
(g8
S'Sbq\x80\x8f\x9e\xed?'
p172
tp173
Rp174
ag4
(g8
S'\x93\xd9s\x97d\xf6\xec?'
p175
tp176
Rp177
aF0.05770611763000488
aI578
aS'kernel = 1 degree'
p178
ag4
(g8
S'e\xce7\xa1\nt\xed?'
p179
tp180
Rp181
ag4
(g8
S'cAs\xa8X\xd0\xec?'
p182
tp183
Rp184
aF0.05287814140319824
aI578
aS'kernel = 1 degree'
p185
aa(lp186
g4
(g8
S'\x19d\xaf\xfaE\x91\xec?'
p187
tp188
Rp189
ag4
(g8
S'\xb2\x96\xa1\x03v{\xec?'
p190
tp191
Rp192
aF0.06175994873046875
aI578
aS'kernel = 1 degree'
p193
ag4
(g8
S'w:\xfe\xc1\x85I\xed?'
p194
tp195
Rp196
ag4
(g8
S'/\x87c\x0b\x95\xf7\xec?'
p197
tp198
Rp199
aF0.05777406692504883
aI578
aS'kernel = 1 degree'
p200
ag4
(g8
S'\xaf\xdb\x086c\x90\xed?'
p201
tp202
Rp203
ag4
(g8
S'i\xa1;v5,\xed?'
p204
tp205
Rp206
aF0.05247187614440918
aI578
aS'kernel = 1 degree'
p207
aa(lp208
g4
(g8
S'\x1b\xc1f\x0c\xb2W\xed?'
p209
tp210
Rp211
ag4
(g8
S'\xda\xa0\xc9\x97\r\x9a\xec?'
p212
tp213
Rp214
aF0.03619694709777832
aI578
aS'kernel = 1 degree'
p215
ag4
(g8
S'w:\xfe\xc1\x85I\xed?'
p216
tp217
Rp218
ag4
(g8
S'\xcd\xb5\x03s\xed\xc0\xec?'
p219
tp220
Rp221
aF0.056555986404418945
aI578
aS'kernel = 1 degree'
p222
ag4
(g8
S'\x07\xf8\xe8\xd9\xca\xbb\xec?'
p223
tp224
Rp225
ag4
(g8
S'`r\x16\xea\xf6\x0e\xec?'
p226
tp227
Rp228
aF0.05220794677734375
aI578
aS'kernel = 1 degree'
p229
aa(lp230
g4
(g8
S'\x19d\xaf\xfaE\x91\xec?'
p231
tp232
Rp233
ag4
(g8
S'6\xad\xf2\xc5\xf0O\xec?'
p234
tp235
Rp236
aF0.06115913391113281
aI578
aS'kernel = 1 degree'
p237
ag4
(g8
S'\x19d\xaf\xfaE\x91\xec?'
p238
tp239
Rp240
ag4
(g8
S'\x00\x00\x00\x00\x00\x00\xec?'
p241
tp242
Rp243
aF0.03199481964111328
aI578
aS'kernel = 1 degree'
p244
ag4
(g8
S'\xac~Q$\xf7\xc9\xec?'
p245
tp246
Rp247
ag4
(g8
S'\x1c\xc7q\x1c\xc7q\xec?'
p248
tp249
Rp250
aF0.03142595291137695
aI578
aS'kernel = 1 degree'
p251
aa(lp252
g4
(g8
S'Sbq\x80\x8f\x9e\xed?'
p253
tp254
Rp255
ag4
(g8
S'\x15\xd5UTWQ\xed?'
p256
tp257
Rp258
aF0.036524057388305664
aI578
aS'kernel = 1 degree'
p259
ag4
(g8
S'\xc0G\xcfV\xdee\xed?'
p260
tp261
Rp262
ag4
(g8
S'\x84\xc5E\xa8h\xfc\xec?'
p263
tp264
Rp265
aF0.034111976623535156
aI578
aS'kernel = 1 degree'
p266
ag4
(g8
S'------\xed?'
p267
tp268
Rp269
ag4
(g8
S'\xa6B\xb4\xe1\xf3\xc7\xec?'
p270
tp271
Rp272
aF0.031204938888549805
aI578
aS'kernel = 1 degree'
p273
aa(lp274
g4
(g8
S'Sbq\x80\x8f\x9e\xed?'
p275
tp276
Rp277
ag4
(g8
S'\x15\xd5UTWQ\xed?'
p278
tp279
Rp280
aF0.053071022033691406
aI578
aS'kernel = 1 degree'
p281
ag4
(g8
S'\xf8\xe8\xd9\xca\xbb\xac\xed?'
p282
tp283
Rp284
ag4
(g8
S'|\xd6\r\xa6\xc8g\xed?'
p285
tp286
Rp287
aF0.03405880928039551
aI578
aS'kernel = 1 degree'
p288
ag4
(g8
S'\x88\xa6\xc4\xe2\x00\x1f\xed?'
p289
tp290
Rp291
ag4
(g8
S'\xbc\xbc\xbc\xbc\xbc\xbc\xec?'
p292
tp293
Rp294
aF0.03092193603515625
aI578
aS'kernel = 1 degree'
p295
aa(lp296
g4
(g8
S'\xaf\xdb\x086c\x90\xed?'
p297
tp298
Rp299
ag4
(g8
S'\x0f\x03g\xe1\xf91\xed?'
p300
tp301
Rp302
aF0.03663301467895508
aI578
aS'kernel = 1 degree'
p303
ag4
(g8
S'\xcfV\xdee\xedt\xec?'
p304
tp305
Rp306
ag4
(g8
S'\xac\xbd\xbf1\xb0\xda\xeb?'
p307
tp308
Rp309
aF0.03360295295715332
aI578
aS'kernel = 1 degree'
p310
ag4
(g8
S'\x8b\x03|\xf4l\xe5\xed?'
p311
tp312
Rp313
ag4
(g8
S'\xc2\xc4\xfb\x91\xd3|\xed?'
p314
tp315
Rp316
aF0.0312960147857666
aI578
aS'kernel = 1 degree'
p317
aa(lp318
g4
(g8
S'\x19d\xaf\xfaE\x91\xec?'
p319
tp320
Rp321
ag4
(g8
S'&C\xb0\x8e6\xef\xeb?'
p322
tp323
Rp324
aF0.03626394271850586
aI578
aS'kernel = 1 degree'
p325
ag4
(g8
S'\xff\xe0\xc2\xa4\x86h\xea?'
p326
tp327
Rp328
ag4
(g8
S'\x9d|\xf3G\xe2j\xe9?'
p329
tp330
Rp331
aF0.03240203857421875
aI578
aS'kernel = 1 degree'
p332
ag4
(g8
S'Q\x05\xban#\xd8\xec?'
p333
tp334
Rp335
ag4
(g8
S'P\xdc\n\xc5\xadP\xec?'
p336
tp337
Rp338
aF0.030345916748046875
aI578
aS'kernel = 1 degree'
p339
aa(lp340
g4
(g8
S'w:\xfe\xc1\x85I\xed?'
p341
tp342
Rp343
ag4
(g8
S'\xb8\xbc\x7f\xeb\xc0\xc7\xec?'
p344
tp345
Rp346
aF0.04492592811584473
aI578
aS'kernel = 1 degree'
p347
ag4
(g8
S'B\xf6\xaa_\x14\xc9\xed?'
p348
tp349
Rp350
ag4
(g8
S'|*X}*X\xed?'
p351
tp352
Rp353
aF0.03399300575256348
aI578
aS'kernel = 1 degree'
p354
ag4
(g8
S'\xd2\xb3\x95wY;\xed?'
p355
tp356
Rp357
ag4
(g8
S'\xec~\xa3\xec~\xa3\xec?'
p358
tp359
Rp360
aF0.03374791145324707
aI578
aS'kernel = 1 degree'
p361
aa(lp362
g4
(g8
S'\x97\xb5\xd3\xf1\x0f.\xec?'
p363
tp364
Rp365
ag4
(g8
S'\xfbC!\xb9\x80\xd7\xeb?'
p366
tp367
Rp368
aF0.03621196746826172
aI578
aS'kernel = 1 degree'
p369
ag4
(g8
S'\xe4\x1f\\\x98\xd4\x10\xed?'
p370
tp371
Rp372
ag4
(g8
S'\xe7!\xa3\x14\xa6\xbe\xec?'
p373
tp374
Rp375
aF0.034204959869384766
aI578
aS'kernel = 1 degree'
p376
ag4
(g8
S'\x1b\xc1f\x0c\xb2W\xed?'
p377
tp378
Rp379
ag4
(g8
S'\x00\x00\x00\x00\x00\x00\xed?'
p380
tp381
Rp382
aF0.03154397010803223
aI578
aS'kernel = 1 degree'
p383
aa(lp384
g4
(g8
S'0\x8a\xe4>\x99\xf3\xed?'
p385
tp386
Rp387
ag4
(g8
S'Ug\xbex\xb0P\xed?'
p388
tp389
Rp390
aF0.03627586364746094
aI578
aS'kernel = 1 degree'
p391
ag4
(g8
S'\xc0G\xcfV\xdee\xed?'
p392
tp393
Rp394
ag4
(g8
S'*\x8d\xe4(\x7f\xb5\xec?'
p395
tp396
Rp397
aF0.03410506248474121
aI578
aS'kernel = 1 degree'
p398
ag4
(g8
S'\xe4\x1f\\\x98\xd4\x10\xed?'
p399
tp400
Rp401
ag4
(g8
S'8\xe2\xcbd\xb04\xec?'
p402
tp403
Rp404
aF0.03223013877868652
aI578
aS'kernel = 1 degree'
p405
aa(lp406
g4
(g8
S'\xd2\xb3\x95wY;\xed?'
p407
tp408
Rp409
ag4
(g8
S'\xfa\x8dmF\xad\x81\xec?'
p410
tp411
Rp412
aF0.03573489189147949
aI578
aS'kernel = 1 degree'
p413
ag4
(g8
S'\xd2\xb3\x95wY;\xed?'
p414
tp415
Rp416
ag4
(g8
S's\x051\xb9\x82\x98\xec?'
p417
tp418
Rp419
aF0.033967018127441406
aI578
aS'kernel = 1 degree'
p420
ag4
(g8
S'e\xce7\xa1\nt\xed?'
p421
tp422
Rp423
ag4
(g8
S'\rV\xe8\x0cV\xe8\xec?'
p424
tp425
Rp426
aF0.031225919723510742
aI578
aS'kernel = 1 degree'
p427
aa(lp428
g4
(g8
S'\xcfV\xdee\xedt\xec?'
p429
tp430
Rp431
ag4
(g8
S'\xd6\xfbe\xbd_\xd6\xeb?'
p432
tp433
Rp434
aF0.037309885025024414
aI578
aS'kernel = 1 degree'
p435
ag4
(g8
S'w:\xfe\xc1\x85I\xed?'
p436
tp437
Rp438
ag4
(g8
S'\x17(\xc6\xda\xfe}\xec?'
p439
tp440
Rp441
aF0.033933162689208984
aI578
aS'kernel = 1 degree'
p442
ag4
(g8
S'\xbe\xea\x17Er\x9f\xec?'
p443
tp444
Rp445
ag4
(g8
S'zV\xd7x\x13\xa2\xeb?'
p446
tp447
Rp448
aF0.03130197525024414
aI578
aS'kernel = 1 degree'
p449
aa(lp450
g4
(g8
S'+\xd0u\x1b\xc1f\xec?'
p451
tp452
Rp453
ag4
(g8
S'\xd0\xba\xc1\x14\xf9\xac\xeb?'
p454
tp455
Rp456
aF0.03637981414794922
aI578
aS'kernel = 1 degree'
p457
ag4
(g8
S'\xbe\xea\x17Er\x9f\xec?'
p458
tp459
Rp460
ag4
(g8
S'2\xf8i\x86M\xbf\xeb?'
p461
tp462
Rp463
aF0.03341484069824219
aI578
aS'kernel = 1 degree'
p464
ag4
(g8
S'?\x99\xf3M\xa8\x02\xed?'
p465
tp466
Rp467
ag4
(g8
S'\xba\xc1\x14\xf9\xac\x1b\xec?'
p468
tp469
Rp470
aF0.03142189979553223
aI578
aS'kernel = 1 degree'
p471
aa(lp472
g4
(g8
S'\xa4g+\xef\xb2v\xea?'
p473
tp474
Rp475
ag4
(g8
S'\xd9\xfdF\xd9\xfdF\xe9?'
p476
tp477
Rp478
aF0.0337519645690918
aI578
aS'kernel = 1 degree'
p479
ag4
(g8
S'\xc0G\xcfV\xdee\xed?'
p480
tp481
Rp482
ag4
(g8
S'\xfdnL>\xa1\xec\xec?'
p483
tp484
Rp485
aF0.048003196716308594
aI578
aS'kernel = 1 degree'
p486
ag4
(g8
S'\xcfV\xdee\xedt\xec?'
p487
tp488
Rp489
ag4
(g8
S'\xdf{\xef\xbd\xf7\xde\xeb?'
p490
tp491
Rp492
aF0.0462801456451416
aI578
aS'kernel = 1 degree'
p493
aa(lp494
g4
(g8
S'(s\xbe\tU\xa0\xeb?'
p495
tp496
Rp497
ag4
(g8
S'#8\xcc\xba\x9e8\xeb?'
p498
tp499
Rp500
aF0.03687882423400879
aI578
aS'kernel = 1 degree'
p501
ag4
(g8
S'B\xf6\xaa_\x14\xc9\xed?'
p502
tp503
Rp504
ag4
(g8
S'\xef\xcdz\xa2l\xa3\xed?'
p505
tp506
Rp507
aF0.035104990005493164
aI578
aS'kernel = 1 degree'
p508
ag4
(g8
S'\xe6|\x13\xaa@\xd7\xed?'
p509
tp510
Rp511
ag4
(g8
S'V,\x1b\xdf\x0c\xad\xed?'
p512
tp513
Rp514
aF0.03063511848449707
aI578
aS'kernel = 1 degree'
p515
aa(lp516
g4
(g8
S'+\xd0u\x1b\xc1f\xec?'
p517
tp518
Rp519
ag4
(g8
S'\xd0\xba\xc1\x14\xf9\xac\xeb?'
p520
tp521
Rp522
aF0.0366060733795166
aI578
aS'kernel = 1 degree'
p523
ag4
(g8
S'\x07\xf8\xe8\xd9\xca\xbb\xec?'
p524
tp525
Rp526
ag4
(g8
S'\x9c\xbd\xd9\x9b\xbd\xd9\xeb?'
p527
tp528
Rp529
aF0.03355002403259277
aI578
aS'kernel = 1 degree'
p530
ag4
(g8
S'\xbb\x8d`3\x06\xd9\xeb?'
p531
tp532
Rp533
ag4
(g8
S'\xeea\xeb\xdb\x80\xa1\xea?'
p534
tp535
Rp536
aF0.03140687942504883
aI578
aS'kernel = 1 degree'
p537
aa(lp538
g4
(g8
S'\x1b\xc1f\x0c\xb2W\xed?'
p539
tp540
Rp541
ag4
(g8
S'\x01\x00\x00\x00\x00\x00\xed?'
p542
tp543
Rp544
aF0.036704063415527344
aI578
aS'kernel = 1 degree'
p545
ag4
(g8
S'\x9a\x12\x8b\x03|\xf4\xec?'
p546
tp547
Rp548
ag4
(g8
S'\x1c\xc9m$\xb7\x91\xec?'
p549
tp550
Rp551
aF0.03506207466125488
aI578
aS'kernel = 1 degree'
p552
ag4
(g8
S'\xc0G\xcfV\xdee\xed?'
p553
tp554
Rp555
ag4
(g8
S'\x16]t\xd1E\x17\xed?'
p556
tp557
Rp558
aF0.03252696990966797
aI578
aS'kernel = 1 degree'
p559
aa(lp560
g4
(g8
S'\x8dA\xf6\xaa_\x14\xe9?'
p561
tp562
Rp563
ag4
(g8
S'\x18W?\xe8\xa8\xc0\xe7?'
p564
tp565
Rp566
aF0.03686094284057617
aI578
aS'kernel = 1 degree'
p567
ag4
(g8
S'iiiiii\xe9?'
p568
tp569
Rp570
ag4
(g8
S'w=\x13\xa4\xd3\x0c\xe8?'
p571
tp572
Rp573
aF0.031965017318725586
aI578
aS'kernel = 1 degree'
p574
ag4
(g8
S'\x1b\xc1f\x0c\xb2W\xed?'
p575
tp576
Rp577
ag4
(g8
S'\xd5\x08\xcb=\x8d\xb0\xec?'
p578
tp579
Rp580
aF0.045307159423828125
aI578
aS'kernel = 1 degree'
p581
aa(lp582
g4
(g8
S'\x1b\xc1f\x0c\xb2W\xed?'
p583
tp584
Rp585
ag4
(g8
S'\x01\x00\x00\x00\x00\x00\xed?'
p586
tp587
Rp588
aF0.03634190559387207
aI578
aS'kernel = 1 degree'
p589
ag4
(g8
S'\xac~Q$\xf7\xc9\xec?'
p590
tp591
Rp592
ag4
(g8
S'\xc2\xd8,\xa8\xf6\x9c\xec?'
p593
tp594
Rp595
aF0.03478884696960449
aI578
aS'kernel = 1 degree'
p596
ag4
(g8
S'\xdc\x086c\x90\xbd\xea?'
p597
tp598
Rp599
ag4
(g8
S'S\xb06\xf4\xc6f\xea?'
p600
tp601
Rp602
aF0.03159689903259277
aI578
aS'kernel = 1 degree'
p603
aa(lp604
g4
(g8
S'w:\xfe\xc1\x85I\xed?'
p605
tp606
Rp607
ag4
(g8
S'\x0fy\xbeMD\x99\xec?'
p608
tp609
Rp610
aF0.05144000053405762
aI578
aS'kernel = 1 degree'
p611
ag4
(g8
S'\xa7\xc4\xe2\x00\x1f=\xeb?'
p612
tp613
Rp614
ag4
(g8
S'<\xad\xee\xb4\xba\xd3\xea?'
p615
tp616
Rp617
aF0.03433990478515625
aI578
aS'kernel = 1 degree'
p618
ag4
(g8
S'KKKKKK\xeb?'
p619
tp620
Rp621
ag4
(g8
S'\xb3\xcc\x0b\xb3\x91\x8c\xea?'
p622
tp623
Rp624
aF0.031761884689331055
aI578
aS'kernel = 1 degree'
p625
aa(lp626
g4
(g8
S'\x9doB\x15\xe8\xba\xed?'
p627
tp628
Rp629
ag4
(g8
S'\x9e\xd8\x89\x9d\xd8\x89\xed?'
p630
tp631
Rp632
aF0.03678607940673828
aI578
aS'kernel = 1 degree'
p633
ag4
(g8
S'\x1b\xc1f\x0c\xb2W\xed?'
p634
tp635
Rp636
ag4
(g8
S'=\xcf\xf3<\xcf\xf3\xec?'
p637
tp638
Rp639
aF0.03644394874572754
aI578
aS'kernel = 1 degree'
p640
ag4
(g8
S'bq\x80\x8f\x9e\xad\xec?'
p641
tp642
Rp643
ag4
(g8
S'7Ls\x17\xfcU\xec?'
p644
tp645
Rp646
aF0.032209157943725586
aI578
aS'kernel = 1 degree'
p647
aa(lp648
g4
(g8
S'\xc0G\xcfV\xdee\xed?'
p649
tp650
Rp651
ag4
(g8
S'\xf1f\x13Tl\xd5\xec?'
p652
tp653
Rp654
aF0.036553144454956055
aI578
aS'kernel = 1 degree'
p655
ag4
(g8
S'Q\x05\xban#\xd8\xec?'
p656
tp657
Rp658
ag4
(g8
S'\xb3\xd3\xb5\x8fyT\xec?'
p659
tp660
Rp661
aF0.03446316719055176
aI578
aS'kernel = 1 degree'
p662
ag4
(g8
S't\xddF\xb0\x19\x83\xec?'
p663
tp664
Rp665
ag4
(g8
S'\x14\xd5\x83F\xde\xf9\xeb?'
p666
tp667
Rp668
aF0.031536102294921875
aI578
aS'kernel = 1 degree'
p669
aa(lp670
g4
(g8
S't\xddF\xb0\x19\x83\xec?'
p671
tp672
Rp673
ag4
(g8
S'}"@k{\xc1\xeb?'
p674
tp675
Rp676
aF0.03642916679382324
aI578
aS'kernel = 1 degree'
p677
ag4
(g8
S'B\xf6\xaa_\x14\xc9\xed?'
p678
tp679
Rp680
ag4
(g8
S'H\x92$I\x92$\xed?'
p681
tp682
Rp683
aF0.033674001693725586
aI578
aS'kernel = 1 degree'
p684
ag4
(g8
S'\x07\xf8\xe8\xd9\xca\xbb\xec?'
p685
tp686
Rp687
ag4
(g8
S'\x9c\xbd\xd9\x9b\xbd\xd9\xeb?'
p688
tp689
Rp690
aF0.03187704086303711
aI578
aS'kernel = 1 degree'
p691
aa(lp692
g4
(g8
S'w:\xfe\xc1\x85I\xed?'
p693
tp694
Rp695
ag4
(g8
S'\xea\x8f\xceN}\x00\xed?'
p696
tp697
Rp698
aF0.03654003143310547
aI578
aS'kernel = 1 degree'
p699
ag4
(g8
S'\xe4\x1f\\\x98\xd4\x10\xed?'
p700
tp701
Rp702
ag4
(g8
S'(\xfd=\xe1t\xdd\xec?'
p703
tp704
Rp705
aF0.03400087356567383
aI578
aS'kernel = 1 degree'
p706
ag4
(g8
S'\xf8\xe8\xd9\xca\xbb\xac\xed?'
p707
tp708
Rp709
ag4
(g8
S'\x8e\xdd\xe6\xd8m\x8e\xed?'
p710
tp711
Rp712
aF0.03159189224243164
aI578
aS'kernel = 1 degree'
p713
aa(lp714
g4
(g8
S'\xd2\xb3\x95wY;\xed?'
p715
tp716
Rp717
ag4
(g8
S'X\xc6\xf6;ze\xec?'
p718
tp719
Rp720
aF0.05044078826904297
aI578
aS'kernel = 1 degree'
p721
ag4
(g8
S'?\x99\xf3M\xa8\x02\xed?'
p722
tp723
Rp724
ag4
(g8
S'\x84\x10B\x08!\x84\xec?'
p725
tp726
Rp727
aF0.04796791076660156
aI578
aS'kernel = 1 degree'
p728
ag4
(g8
S'\x07\xf8\xe8\xd9\xca\xbb\xec?'
p729
tp730
Rp731
ag4
(g8
S'\xed\x0e\x0bT\x18\xec\xeb?'
p732
tp733
Rp734
aF0.04671597480773926
aI578
aS'kernel = 1 degree'
p735
aa(lp736
g4
(g8
S'\x8b\x03|\xf4l\xe5\xed?'
p737
tp738
Rp739
ag4
(g8
S'3\x9c\xd4}yl\xed?'
p740
tp741
Rp742
aF0.05095195770263672
aI578
aS'kernel = 1 degree'
p743
ag4
(g8
S'\xca\x9coB\x15\xe8\xea?'
p744
tp745
Rp746
ag4
(g8
S'\xf5"NT\x9e\x16\xea?'
p747
tp748
Rp749
aF0.03200483322143555
aI578
aS'kernel = 1 degree'
p750
ag4
(g8
S'bq\x80\x8f\x9e\xad\xec?'
p751
tp752
Rp753
ag4
(g8
S'uk~X\xa4\x0c\xec?'
p754
tp755
Rp756
aF0.03168487548828125
aI578
aS'kernel = 1 degree'
p757
aa(lp758
g4
(g8
S'(s\xbe\tU\xa0\xeb?'
p759
tp760
Rp761
ag4
(g8
S'#8\xcc\xba\x9e8\xeb?'
p762
tp763
Rp764
aF0.037570953369140625
aI578
aS'kernel = 1 degree'
p765
ag4
(g8
S'\x1b\xc1f\x0c\xb2W\xed?'
p766
tp767
Rp768
ag4
(g8
S'\x0c$\xb5L9:\xed?'
p769
tp770
Rp771
aF0.03527498245239258
aI578
aS'kernel = 1 degree'
p772
ag4
(g8
S'\x9a\x12\x8b\x03|\xf4\xec?'
p773
tp774
Rp775
ag4
(g8
S'\xad\xb4M\xe5\xf7\xb8\xec?'
p776
tp777
Rp778
aF0.030846834182739258
aI578
aS'kernel = 1 degree'
p779
aa(lp780
g4
(g8
S'\xc0G\xcfV\xdee\xed?'
p781
tp782
Rp783
ag4
(g8
S'\x8bb\tJ\xd6\xef\xec?'
p784
tp785
Rp786
aF0.03661489486694336
aI578
aS'kernel = 1 degree'
p787
ag4
(g8
S'\x97\xb5\xd3\xf1\x0f.\xec?'
p788
tp789
Rp790
ag4
(g8
S'\x9a\xe2\x89p\xb2\xa0\xeb?'
p791
tp792
Rp793
aF0.03435492515563965
aI578
aS'kernel = 1 degree'
p794
ag4
(g8
S'?\x99\xf3M\xa8\x02\xed?'
p795
tp796
Rp797
ag4
(g8
S'\x1c\xc7q\x1c\xc7q\xec?'
p798
tp799
Rp800
aF0.03213214874267578
aI578
aS'kernel = 1 degree'
p801
aa(lp802
g4
(g8
S'\x8dA\xf6\xaa_\x14\xe9?'
p803
tp804
Rp805
ag4
(g8
S'\x18W?\xe8\xa8\xc0\xe7?'
p806
tp807
Rp808
aF0.03712797164916992
aI578
aS'kernel = 1 degree'
p809
ag4
(g8
S'\xd2\xb3\x95wY;\xed?'
p810
tp811
Rp812
ag4
(g8
S'V\xbc\x93\x1f\xccy\xec?'
p813
tp814
Rp815
aF0.03473019599914551
aI578
aS'kernel = 1 degree'
p816
ag4
(g8
S'\xd2\xb3\x95wY;\xed?'
p817
tp818
Rp819
ag4
(g8
S'\xc8B\x16\xb2\x90\x85\xec?'
p820
tp821
Rp822
aF0.03254413604736328
aI578
aS'kernel = 1 degree'
p823
aa(lp824
g4
(g8
S'\xaf\xdb\x086c\x90\xed?'
p825
tp826
Rp827
ag4
(g8
S'\x0f\x03g\xe1\xf91\xed?'
p828
tp829
Rp830
aF0.03714585304260254
aI578
aS'kernel = 1 degree'
p831
ag4
(g8
S'\x9doB\x15\xe8\xba\xed?'
p832
tp833
Rp834
ag4
(g8
S'\x86\xb2s+%Q\xed?'
p835
tp836
Rp837
aF0.03437399864196777
aI578
aS'kernel = 1 degree'
p838
ag4
(g8
S'Q\x05\xban#\xd8\xec?'
p839
tp840
Rp841
ag4
(g8
S')\\\x8f\xc2\xf5(\xec?'
p842
tp843
Rp844
aF0.03187203407287598
aI578
aS'kernel = 1 degree'
p845
aa(lp846
g4
(g8
S'?\x99\xf3M\xa8\x02\xed?'
p847
tp848
Rp849
ag4
(g8
S'&\x93\xc9d2\x99\xec?'
p850
tp851
Rp852
aF0.03711199760437012
aI578
aS'kernel = 1 degree'
p853
ag4
(g8
S'\x9doB\x15\xe8\xba\xed?'
p854
tp855
Rp856
ag4
(g8
S'\xc2X\xbcD\xe99\xed?'
p857
tp858
Rp859
aF0.034774065017700195
aI578
aS'kernel = 1 degree'
p860
ag4
(g8
S'\x1b\xc1f\x0c\xb2W\xed?'
p861
tp862
Rp863
ag4
(g8
S'\xd4\x08\xcb=\x8d\xb0\xec?'
p864
tp865
Rp866
aF0.032319068908691406
aI578
aS'kernel = 1 degree'
p867
aa(lp868
g4
(g8
S'\x9doB\x15\xe8\xba\xed?'
p869
tp870
Rp871
ag4
(g8
S'\x9e\xd8\x89\x9d\xd8\x89\xed?'
p872
tp873
Rp874
aF0.037567138671875
aI578
aS'kernel = 1 degree'
p875
ag4
(g8
S'\xf8\xe8\xd9\xca\xbb\xac\xed?'
p876
tp877
Rp878
ag4
(g8
S'\x90\xdaH\x18\x08X\xed?'
p879
tp880
Rp881
aF0.03370189666748047
aI578
aS'kernel = 1 degree'
p882
ag4
(g8
S'\nU\xa0\xeb6\x82\xed?'
p883
tp884
Rp885
ag4
(g8
S'\x16\xd3YLg1\xed?'
p886
tp887
Rp888
aF0.031468868255615234
aI578
aS'kernel = 1 degree'
p889
aa(lp890
g4
(g8
S'w:\xfe\xc1\x85I\xed?'
p891
tp892
Rp893
ag4
(g8
S'\xea\x8f\xceN}\x00\xed?'
p894
tp895
Rp896
aF0.051876068115234375
aI578
aS'kernel = 1 degree'
p897
ag4
(g8
S'\xd2\xb3\x95wY;\xed?'
p898
tp899
Rp900
ag4
(g8
S'\x8cJ$_S\xef\xec?'
p901
tp902
Rp903
aF0.049414873123168945
aI578
aS'kernel = 1 degree'
p904
ag4
(g8
S'?\x99\xf3M\xa8\x02\xed?'
p905
tp906
Rp907
ag4
(g8
S'\x08\xcc\x1e0{\xc0\xec?'
p908
tp909
Rp910
aF0.04633021354675293
aI578
aS'kernel = 1 degree'
p911
aa(lp912
g4
(g8
S'\xca\x9coB\x15\xe8\xea?'
p913
tp914
Rp915
ag4
(g8
S'@s\x1a\xdcy\x91\xea?'
p916
tp917
Rp918
aF0.03736710548400879
aI578
aS'kernel = 1 degree'
p919
ag4
(g8
S'0\x8a\xe4>\x99\xf3\xed?'
p920
tp921
Rp922
ag4
(g8
S'@\x80b\xc0\x93\xa0\xed?'
p923
tp924
Rp925
aF0.035433053970336914
aI578
aS'kernel = 1 degree'
p926
ag4
(g8
S'w:\xfe\xc1\x85I\xed?'
p927
tp928
Rp929
ag4
(g8
S'\x9bg\x9a\x11a\xeb\xec?'
p930
tp931
Rp932
aF0.031210899353027344
aI578
aS'kernel = 1 degree'
p933
aa(lp934
g4
(g8
S' \\\x98\xd4\x10M\xe9?'
p935
tp936
Rp937
ag4
(g8
S'\xa7\xd8\x9e\xb7\x1a\xa7\xe8?'
p938
tp939
Rp940
aF0.03641915321350098
aI578
aS'kernel = 1 degree'
p941
ag4
(g8
S'B\xf6\xaa_\x14\xc9\xed?'
p942
tp943
Rp944
ag4
(g8
S'Z\x1f\x1a\xebCc\xed?'
p945
tp946
Rp947
aF0.034323930740356445
aI578
aS'kernel = 1 degree'
p948
ag4
(g8
S'\x9a\x12\x8b\x03|\xf4\xec?'
p949
tp950
Rp951
ag4
(g8
S'\xec\xfca\xfb\x12y\xec?'
p952
tp953
Rp954
aF0.03196406364440918
aI578
aS'kernel = 1 degree'
p955
aa(lp956
g4
(g8
S']\xb7\x11l\xc6 \xeb?'
p957
tp958
Rp959
ag4
(g8
S'zzzzzz\xea?'
p960
tp961
Rp962
aF0.050897836685180664
aI578
aS'kernel = 1 degree'
p963
ag4
(g8
S'\x1b\xc1f\x0c\xb2W\xed?'
p964
tp965
Rp966
ag4
(g8
S'Y\x8aC\xc6^\xbb\xec?'
p967
tp968
Rp969
aF0.03435492515563965
aI578
aS'kernel = 1 degree'
p970
ag4
(g8
S'bq\x80\x8f\x9e\xad\xec?'
p971
tp972
Rp973
ag4
(g8
S'\xbc?\x04\xbc?\x04\xec?'
p974
tp975
Rp976
aF0.03157687187194824
aI578
aS'kernel = 1 degree'
p977
aa(lp978
g4
(g8
S'w:\xfe\xc1\x85I\xed?'
p979
tp980
Rp981
ag4
(g8
S'.\x87c\x0b\x95\xf7\xec?'
p982
tp983
Rp984
aF0.036607980728149414
aI578
aS'kernel = 1 degree'
p985
ag4
(g8
S'\xe6|\x13\xaa@\xd7\xed?'
p986
tp987
Rp988
ag4
(g8
S'\xbb\xb4\xb7\xe9\x08\x96\xed?'
p989
tp990
Rp991
aF0.033898115158081055
aI578
aS'kernel = 1 degree'
p992
ag4
(g8
S'\x86I\r\xd1\x94X\xec?'
p993
tp994
Rp995
ag4
(g8
S'\xf5z\xbd^\xaf\xd7\xeb?'
p996
tp997
Rp998
aF0.032402992248535156
aI578
aS'kernel = 1 degree'
p999
aa(lp1000
g4
(g8
S'\nU\xa0\xeb6\x82\xed?'
p1001
tp1002
Rp1003
ag4
(g8
S'\x80\x85Y\x8d"\x0e\xed?'
p1004
tp1005
Rp1006
aF0.03710818290710449
aI578
aS'kernel = 1 degree'
p1007
ag4
(g8
S'\xaf\xdb\x086c\x90\xed?'
p1008
tp1009
Rp1010
ag4
(g8
S'\x0e\xd4\xe7\xa5\x81\xfa\xec?'
p1011
tp1012
Rp1013
aF0.034484148025512695
aI578
aS'kernel = 1 degree'
p1014
ag4
(g8
S'Q\x05\xban#\xd8\xec?'
p1015
tp1016
Rp1017
ag4
(g8
S'\xde\xd8\xf7\x88\x9c \xec?'
p1018
tp1019
Rp1020
aF0.03218197822570801
aI578
aS'kernel = 1 degree'
p1021
aa(lp1022
g4
(g8
S'?\x99\xf3M\xa8\x02\xed?'
p1023
tp1024
Rp1025
ag4
(g8
S'\xd2\xd2\xd2\xd2\xd2\xd2\xec?'
p1026
tp1027
Rp1028
aF0.03709697723388672
aI578
aS'kernel = 1 degree'
p1029
ag4
(g8
S'\x1b\xc1f\x0c\xb2W\xed?'
p1030
tp1031
Rp1032
ag4
(g8
S'\xe1|\x0c\xce\xc7\xe0\xec?'
p1033
tp1034
Rp1035
aF0.03515195846557617
aI578
aS'kernel = 1 degree'
p1036
ag4
(g8
S'\x88\xa6\xc4\xe2\x00\x1f\xed?'
p1037
tp1038
Rp1039
ag4
(g8
S'\x1b\xcak(\xaf\xa1\xec?'
p1040
tp1041
Rp1042
aF0.03125596046447754
aI578
aS'kernel = 1 degree'
p1043
aa(lp1044
g4
(g8
S'\x8b\x03|\xf4l\xe5\xed?'
p1045
tp1046
Rp1047
ag4
(g8
S'8QyZ\xe8\x8e\xed?'
p1048
tp1049
Rp1050
aF0.03685784339904785
aI578
aS'kernel = 1 degree'
p1051
ag4
(g8
S'\xae\xbc\xcb\xda\xe9\xf8\xe7?'
p1052
tp1053
Rp1054
ag4
(g8
S'\xfc\x00\x8e\xa7\x13\x18\xe7?'
p1055
tp1056
Rp1057
aF0.03382301330566406
aI578
aS'kernel = 1 degree'
p1058
ag4
(g8
S'\x9a\x12\x8b\x03|\xf4\xec?'
p1059
tp1060
Rp1061
ag4
(g8
S"Z0'%A\x80\xec?"
p1062
tp1063
Rp1064
aF0.03132319450378418
aI578
aS'kernel = 1 degree'
p1065
aa(lp1066
g4
(g8
S'(s\xbe\tU\xa0\xeb?'
p1067
tp1068
Rp1069
ag4
(g8
S'#8\xcc\xba\x9e8\xeb?'
p1070
tp1071
Rp1072
aF0.03964495658874512
aI578
aS'kernel = 1 degree'
p1073
ag4
(g8
S'bq\x80\x8f\x9e\xad\xec?'
p1074
tp1075
Rp1076
ag4
(g8
S'bq\x80\x8f\x9e\xad\xec?'
p1077
tp1078
Rp1079
aF0.0358121395111084
aI578
aS'kernel = 1 degree'
p1080
ag4
(g8
S'\x8b\x03|\xf4l\xe5\xed?'
p1081
tp1082
Rp1083
ag4
(g8
S'\xb2\xc9&\x9bl\xb2\xed?'
p1084
tp1085
Rp1086
aF0.031961917877197266
aI578
aS'kernel = 1 degree'
p1087
aa(lp1088
g4
(g8
S'\xa9!\x9a\x12\x8b\x03\xec?'
p1089
tp1090
Rp1091
ag4
(g8
S'{L8{L8\xeb?'
p1092
tp1093
Rp1094
aF0.03563213348388672
aI578
aS'kernel = 1 degree'
p1095
ag4
(g8
S'\xbe\xea\x17Er\x9f\xec?'
p1096
tp1097
Rp1098
ag4
(g8
S'\x9b\xa4i!\xdc@\xec?'
p1099
tp1100
Rp1101
aF0.03390002250671387
aI578
aS'kernel = 1 degree'
p1102
ag4
(g8
S'\xe1\xc2\xa4\x86hJ\xec?'
p1103
tp1104
Rp1105
ag4
(g8
S'X\x1bzc3\r\xec?'
p1106
tp1107
Rp1108
aF0.032305002212524414
aI578
aS'kernel = 1 degree'
p1109
aas.