(dp0
S'austra'
p1
(lp2
(lp3
cnumpy.core.multiarray
scalar
p4
(cnumpy
dtype
p5
(S'f8'
p6
I0
I1
tp7
Rp8
(I3
S'<'
p9
NNNI-1
I-1
I0
tp10
bS")\xf4'\x19\x8bj\xe8?"
p11
tp12
Rp13
ag4
(g8
S'D:o1\xa4\xf3\xe6?'
p14
tp15
Rp16
aF0.05438494682312012
aI173
aS'kernel = 0 degree'
p17
ag4
(g8
S'\xea*\xcf\xc4\xc7}\xe7?'
p18
tp19
Rp20
ag4
(g8
S'\xde`\x8a|\xd6\r\xe6?'
p21
tp22
Rp23
aF0.04717683792114258
aI173
aS'kernel = 0 degree'
p24
ag4
(g8
S'\x1e\x1cA\xa4\xf5\x02\xe6?'
p25
tp26
Rp27
ag4
(g8
S'\x97z2~\xbb\xd4\xe3?'
p28
tp29
Rp30
aF0.0367889404296875
aI173
aS'kernel = 0 degree'
p31
aa(lp32
g4
(g8
S'k\x98\x1d\x1cA\xa4\xe5?'
p33
tp34
Rp35
ag4
(g8
S'333333\xe3?'
p36
tp37
Rp38
aF0.052086830139160156
aI173
aS'kernel = 0 degree'
p39
ag4
(g8
S'\x9d\xae\xf2L|\xdc\xe7?'
p40
tp41
Rp42
ag4
(g8
S'\xf4@\xe5\xec\x16~\xe5?'
p43
tp44
Rp45
aF0.051653146743774414
aI173
aS'kernel = 0 degree'
p46
ag4
(g8
S'7\xa7\xab<\x13\x1f\xe7?'
p47
tp48
Rp49
ag4
(g8
S'\xc2\xf5(\\\x8f\xc2\xe5?'
p50
tp51
Rp52
aF0.04433488845825195
aI173
aS'kernel = 0 degree'
p53
aa(lp54
g4
(g8
S'\xd1\x9fd,\xaaa\xe6?'
p55
tp56
Rp57
ag4
(g8
S'\x1c\xc7q\x1c\xc7q\xe4?'
p58
tp59
Rp60
aF0.04509592056274414
aI173
aS'kernel = 0 degree'
p61
ag4
(g8
S'\xea*\xcf\xc4\xc7}\xe7?'
p62
tp63
Rp64
ag4
(g8
S'\x17~5&\xd2\x03\xe5?'
p65
tp66
Rp67
aF0.049642086029052734
aI173
aS'kernel = 0 degree'
p68
ag4
(g8
S'7\xa7\xab<\x13\x1f\xe7?'
p69
tp70
Rp71
ag4
(g8
S'\xf2Y7\x98"\x9f\xe5?'
p72
tp73
Rp74
aF0.04443693161010742
aI173
aS'kernel = 0 degree'
p75
aa(lp76
g4
(g8
S'\x10i\xbd\x80mN\xe7?'
p77
tp78
Rp79
ag4
(g8
S'\x12\xe1IA\xf2\xe7\xe5?'
p80
tp81
Rp82
aF0.04421091079711914
aI173
aS'kernel = 0 degree'
p83
ag4
(g8
S'DZ/`\x9b\xd3\xe5?'
p84
tp85
Rp86
ag4
(g8
S'\xda=l}\x1b0\xe4?'
p87
tp88
Rp89
aF0.040268898010253906
aI173
aS'kernel = 0 degree'
p90
ag4
(g8
S'\xc3\xec\xe0\x08"\xad\xe7?'
p91
tp92
Rp93
ag4
(g8
S'\xb5\xd6Zk\xad\xb5\xe6?'
p94
tp95
Rp96
aF0.04380202293395996
aI173
aS'kernel = 0 degree'
p97
aa(lp98
g4
(g8
S'\xaaavp\x04\x91\xe6?'
p99
tp100
Rp101
ag4
(g8
S' 2\xdc\xab`\x96\xe4?'
p102
tp103
Rp104
aF0.05657601356506348
aI173
aS'kernel = 0 degree'
p105
ag4
(g8
S'\x10i\xbd\x80mN\xe7?'
p106
tp107
Rp108
ag4
(g8
S'\xc5_\xe4\x0c\x0b.\xe5?'
p109
tp110
Rp111
aF0.04764199256896973
aI173
aS'kernel = 0 degree'
p112
ag4
(g8
S'\x9d\xae\xf2L|\xdc\xe7?'
p113
tp114
Rp115
ag4
(g8
S'\x9c6\xd0i\x03\x9d\xe6?'
p116
tp117
Rp118
aF0.03230595588684082
aI173
aS'kernel = 0 degree'
p119
aa(lp120
g4
(g8
S'\x10i\xbd\x80mN\xe7?'
p121
tp122
Rp123
ag4
(g8
S'v\x18e*\x9ek\xe6?'
p124
tp125
Rp126
aF0.04740500450134277
aI173
aS'kernel = 0 degree'
p127
ag4
(g8
S'7\xa7\xab<\x13\x1f\xe7?'
p128
tp129
Rp130
ag4
(g8
S'\x8f\xec\x19\x88JG\xe6?'
p131
tp132
Rp133
aF0.04027295112609863
aI173
aS'kernel = 0 degree'
p134
ag4
(g8
S'\xd1\x9fd,\xaaa\xe6?'
p135
tp136
Rp137
ag4
(g8
S'\xdb\x95\xa8]\x89\xda\xe5?'
p138
tp139
Rp140
aF0.013659954071044922
aI173
aS'kernel = 0 degree'
p141
aa(lp142
g4
(g8
S'\xf7\xddR\xe8O2\xe6?'
p143
tp144
Rp145
ag4
(g8
S'\x9a\xb6\xc6\xdf\xcd#\xe4?'
p146
tp147
Rp148
aF0.04572105407714844
aI173
aS'kernel = 0 degree'
p149
ag4
(g8
S'\x1e\x1cA\xa4\xf5\x02\xe6?'
p150
tp151
Rp152
ag4
(g8
S'\xa2B\x85\n\x15*\xe4?'
p153
tp154
Rp155
aF0.030421018600463867
aI173
aS'kernel = 0 degree'
p156
ag4
(g8
S'\xc5\xc7}\xb7\x14\xfa\xe3?'
p157
tp158
Rp159
ag4
(g8
S'v\xd4"\xe4\xaf\xd9\xe1?'
p160
tp161
Rp162
aF0.034887075424194336
aI173
aS'kernel = 0 degree'
p163
aa(lp164
g4
(g8
S'\x10i\xbd\x80mN\xe7?'
p165
tp166
Rp167
ag4
(g8
S'\x12\xe1IA\xf2\xe7\xe5?'
p168
tp169
Rp170
aF0.03874921798706055
aI173
aS'kernel = 0 degree'
p171
ag4
(g8
S']\xe5\x99\xf8\xb8\xef\xe6?'
p172
tp173
Rp174
ag4
(g8
S'\x16k\xc0\x15k\xc0\xe5?'
p175
tp176
Rp177
aF0.04835700988769531
aI173
aS'kernel = 0 degree'
p178
ag4
(g8
S'DZ/`\x9b\xd3\xe5?'
p179
tp180
Rp181
ag4
(g8
S'\xd4)\x7f\xd4)\x7f\xe4?'
p182
tp183
Rp184
aF0.04023313522338867
aI173
aS'kernel = 0 degree'
p185
aa(lp186
g4
(g8
S'\xea*\xcf\xc4\xc7}\xe7?'
p187
tp188
Rp189
ag4
(g8
S'------\xe5?'
p190
tp191
Rp192
aF0.04054903984069824
aI173
aS'kernel = 0 degree'
p193
ag4
(g8
S'vp\x04\x91\xd6\x0b\xe8?'
p194
tp195
Rp196
ag4
(g8
S'^*h\xf5\xa5\x82\xe6?'
p197
tp198
Rp199
aF0.0158231258392334
aI173
aS'kernel = 0 degree'
p200
ag4
(g8
S'\x10i\xbd\x80mN\xe7?'
p201
tp202
Rp203
ag4
(g8
S'p\xa5{\x03\xca\xc4\xe5?'
p204
tp205
Rp206
aF0.03774690628051758
aI173
aS'kernel = 0 degree'
p207
aa(lp208
g4
(g8
S'vp\x04\x91\xd6\x0b\xe8?'
p209
tp210
Rp211
ag4
(g8
S'\xce\x82j\xcf\xc9\xf4\xe5?'
p212
tp213
Rp214
aF0.04205799102783203
aI173
aS'kernel = 0 degree'
p215
ag4
(g8
S'vp\x04\x91\xd6\x0b\xe8?'
p216
tp217
Rp218
ag4
(g8
S'\xeb\\y@\xb2\xce\xe5?'
p219
tp220
Rp221
aF0.04487013816833496
aI173
aS'kernel = 0 degree'
p222
ag4
(g8
S'\xea*\xcf\xc4\xc7}\xe7?'
p223
tp224
Rp225
ag4
(g8
S'\xb7m\xdb\xb6m\xdb\xe2?'
p226
tp227
Rp228
aF0.037963151931762695
aI173
aS'kernel = 0 degree'
p229
aa(lp230
g4
(g8
S'\x9d\xae\xf2L|\xdc\xe7?'
p231
tp232
Rp233
ag4
(g8
S'UUUUUU\xe5?'
p234
tp235
Rp236
aF0.01609516143798828
aI173
aS'kernel = 0 degree'
p237
ag4
(g8
S'\xc3\xec\xe0\x08"\xad\xe7?'
p238
tp239
Rp240
ag4
(g8
S'v@7\xe6\xe9\xa3\xe5?'
p241
tp242
Rp243
aF0.016470909118652344
aI173
aS'kernel = 0 degree'
p244
ag4
(g8
S'\x1e\x1cA\xa4\xf5\x02\xe6?'
p245
tp246
Rp247
ag4
(g8
S'1E>\xeb\x06S\xe4?'
p248
tp249
Rp250
aF0.013608932495117188
aI173
aS'kernel = 0 degree'
p251
aa(lp252
g4
(g8
S'\x1e\x1cA\xa4\xf5\x02\xe6?'
p253
tp254
Rp255
ag4
(g8
S'\x98z2~\xbb\xd4\xe3?'
p256
tp257
Rp258
aF0.016037940979003906
aI173
aS'kernel = 0 degree'
p259
ag4
(g8
S'\xb7\x14\xfa\x93\x8cE\xe5?'
p260
tp261
Rp262
ag4
(g8
S'\x97\x15\x03%\xbc\xd1\xe4?'
p263
tp264
Rp265
aF0.015066862106323242
aI173
aS'kernel = 0 degree'
p266
ag4
(g8
S'7\xa7\xab<\x13\x1f\xe7?'
p267
tp268
Rp269
ag4
(g8
S'\x8f\xec\x19\x88JG\xe6?'
p270
tp271
Rp272
aF0.013510942459106445
aI173
aS'kernel = 0 degree'
p273
aa(lp274
g4
(g8
S'k\x98\x1d\x1cA\xa4\xe5?'
p275
tp276
Rp277
ag4
(g8
S'333333\xe3?'
p278
tp279
Rp280
aF0.016217947006225586
aI173
aS'kernel = 0 degree'
p281
ag4
(g8
S']\xe5\x99\xf8\xb8\xef\xe6?'
p282
tp283
Rp284
ag4
(g8
S'\x15\x7f\x913,\xb8\xe4?'
p285
tp286
Rp287
aF0.014861822128295898
aI173
aS'kernel = 0 degree'
p288
ag4
(g8
S']\xe5\x99\xf8\xb8\xef\xe6?'
p289
tp290
Rp291
ag4
(g8
S'\x16k\xc0\x15k\xc0\xe5?'
p292
tp293
Rp294
aF0.01324605941772461
aI173
aS'kernel = 0 degree'
p295
aa(lp296
g4
(g8
S'\x10i\xbd\x80mN\xe7?'
p297
tp298
Rp299
ag4
(g8
S'\x98\nZ}\xa9\xa0\xe5?'
p300
tp301
Rp302
aF0.015930891036987305
aI173
aS'kernel = 0 degree'
p303
ag4
(g8
S'\xd1\x9fd,\xaaa\xe6?'
p304
tp305
Rp306
ag4
(g8
S'333333\xe3?'
p307
tp308
Rp309
aF0.014636993408203125
aI173
aS'kernel = 0 degree'
p310
ag4
(g8
S'\xdeR\xe8O2\x16\xe5?'
p311
tp312
Rp313
ag4
(g8
S'\xc1\xb7\xf9+\xccj\xe4?'
p314
tp315
Rp316
aF0.0083770751953125
aI173
aS'kernel = 0 degree'
p317
aa(lp318
g4
(g8
S'\xf7\xddR\xe8O2\xe6?'
p319
tp320
Rp321
ag4
(g8
S'\xb8\x15\x8a[\xa1\xb8\xe5?'
p322
tp323
Rp324
aF0.009744882583618164
aI173
aS'kernel = 0 degree'
p325
ag4
(g8
S']\xe5\x99\xf8\xb8\xef\xe6?'
p326
tp327
Rp328
ag4
(g8
S'\x14\x7f\x913,\xb8\xe4?'
p329
tp330
Rp331
aF0.01507711410522461
aI173
aS'kernel = 0 degree'
p332
ag4
(g8
S'k\x98\x1d\x1cA\xa4\xe5?'
p333
tp334
Rp335
ag4
(g8
S'\xd1E\x17]t\xd1\xe5?'
p336
tp337
Rp338
aF0.01378178596496582
aI173
aS'kernel = 0 degree'
p339
aa(lp340
g4
(g8
S'\x1e\x1cA\xa4\xf5\x02\xe6?'
p341
tp342
Rp343
ag4
(g8
S'\x84:\xa8\x83:\xa8\xe3?'
p344
tp345
Rp346
aF0.015591859817504883
aI173
aS'kernel = 0 degree'
p347
ag4
(g8
S'DZ/`\x9b\xd3\xe5?'
p348
tp349
Rp350
ag4
(g8
S'\x14;\xb1\x13;\xb1\xe3?'
p351
tp352
Rp353
aF0.015882015228271484
aI173
aS'kernel = 0 degree'
p354
ag4
(g8
S'\xdeR\xe8O2\x16\xe5?'
p355
tp356
Rp357
ag4
(g8
S'\xa0\x1b\xf3\xf4\xd1j\xe2?'
p358
tp359
Rp360
aF0.013150930404663086
aI173
aS'kernel = 0 degree'
p361
aa(lp362
g4
(g8
S'DZ/`\x9b\xd3\xe5?'
p363
tp364
Rp365
ag4
(g8
S'\x14;\xb1\x13;\xb1\xe3?'
p366
tp367
Rp368
aF0.01666998863220215
aI173
aS'kernel = 0 degree'
p369
ag4
(g8
S'\xf7\xddR\xe8O2\xe6?'
p370
tp371
Rp372
ag4
(g8
S'\x1e\xb5\x08\xf9kv\xe4?'
p373
tp374
Rp375
aF0.014660835266113281
aI173
aS'kernel = 0 degree'
p376
ag4
(g8
S'\xb7\x14\xfa\x93\x8cE\xe5?'
p377
tp378
Rp379
ag4
(g8
S'\xa4A\x1a\xa4A\x1a\xe4?'
p380
tp381
Rp382
aF0.018011808395385742
aI173
aS'kernel = 0 degree'
p383
aa(lp384
g4
(g8
S']\xe5\x99\xf8\xb8\xef\xe6?'
p385
tp386
Rp387
ag4
(g8
S'\xebt:\x9dN\xa7\xe3?'
p388
tp389
Rp390
aF0.01648402214050293
aI173
aS'kernel = 0 degree'
p391
ag4
(g8
S'\xd1\x9fd,\xaaa\xe6?'
p392
tp393
Rp394
ag4
(g8
S'\x00\x00\x00\x00\x00\x00\xe3?'
p395
tp396
Rp397
aF0.014699935913085938
aI173
aS'kernel = 0 degree'
p398
ag4
(g8
S'\xaaavp\x04\x91\xe6?'
p399
tp400
Rp401
ag4
(g8
S'\xd1\xeaK\x05\xad\xbe\xe4?'
p402
tp403
Rp404
aF0.013160943984985352
aI173
aS'kernel = 0 degree'
p405
aa(lp406
g4
(g8
S'k\x98\x1d\x1cA\xa4\xe5?'
p407
tp408
Rp409
ag4
(g8
S',l\x0e$Za\xe3?'
p410
tp411
Rp412
aF0.016069889068603516
aI173
aS'kernel = 0 degree'
p413
ag4
(g8
S'\x91\xd6\x0b\xd8\xe6t\xe5?'
p414
tp415
Rp416
ag4
(g8
S'L\xae &W\x10\xe3?'
p417
tp418
Rp419
aF0.015525102615356445
aI173
aS'kernel = 0 degree'
p420
ag4
(g8
S'\x91\xd6\x0b\xd8\xe6t\xe5?'
p421
tp422
Rp423
ag4
(g8
S'\x0b\xd5t\xcc%\xc2\xe3?'
p424
tp425
Rp426
aF0.013814926147460938
aI173
aS'kernel = 0 degree'
p427
aa(lp428
g4
(g8
S'\xea*\xcf\xc4\xc7}\xe7?'
p429
tp430
Rp431
ag4
(g8
S'\xaf^\xbdz\xf5\xea\xe5?'
p432
tp433
Rp434
aF0.016095876693725586
aI173
aS'kernel = 0 degree'
p435
ag4
(g8
S'7\xa7\xab<\x13\x1f\xe7?'
p436
tp437
Rp438
ag4
(g8
S"vb'vb'\xe6?"
p439
tp440
Rp441
aF0.014093160629272461
aI173
aS'kernel = 0 degree'
p442
ag4
(g8
S'\x04\x91\xd6\x0b\xd8\xe6\xe4?'
p443
tp444
Rp445
ag4
(g8
S'"\x0bY\xc8B\x16\xe2?'
p446
tp447
Rp448
aF0.012785911560058594
aI173
aS'kernel = 0 degree'
p449
aa(lp450
g4
(g8
S'\xb69]\xe5\x99\xf8\xe8?'
p451
tp452
Rp453
ag4
(g8
S'\x01\x00\x00\x00\x00\x00\xe8?'
p454
tp455
Rp456
aF0.012044906616210938
aI173
aS'kernel = 0 degree'
p457
ag4
(g8
S'\x03\xb69]\xe5\x99\xe8?'
p458
tp459
Rp460
ag4
(g8
S'\xb7m\xdb\xb6m\xdb\xe6?'
p461
tp462
Rp463
aF0.020102977752685547
aI173
aS'kernel = 0 degree'
p464
ag4
(g8
S'\x84#\x88\xb4^\xc0\xe6?'
p465
tp466
Rp467
ag4
(g8
S'\xa8P\xa1B\x85\n\xe5?'
p468
tp469
Rp470
aF0.013164997100830078
aI173
aS'kernel = 0 degree'
p471
aa(lp472
g4
(g8
S'\xf7\xddR\xe8O2\xe6?'
p473
tp474
Rp475
ag4
(g8
S'\x9a\xb6\xc6\xdf\xcd#\xe4?'
p476
tp477
Rp478
aF0.015894174575805664
aI173
aS'kernel = 0 degree'
p479
ag4
(g8
S'\xaaavp\x04\x91\xe6?'
p480
tp481
Rp482
ag4
(g8
S' 2\xdc\xab`\x96\xe4?'
p483
tp484
Rp485
aF0.014657020568847656
aI173
aS'kernel = 0 degree'
p486
ag4
(g8
S'\x9d\xae\xf2L|\xdc\xe7?'
p487
tp488
Rp489
ag4
(g8
S'\xf4@\xe5\xec\x16~\xe5?'
p490
tp491
Rp492
aF0.013225078582763672
aI173
aS'kernel = 0 degree'
p493
aa(lp494
g4
(g8
S'\x91\xd6\x0b\xd8\xe6t\xe5?'
p495
tp496
Rp497
ag4
(g8
S'\x16T{N\xa6\xaf\xe2?'
p498
tp499
Rp500
aF0.016297101974487305
aI173
aS'kernel = 0 degree'
p501
ag4
(g8
S'\x91\xd6\x0b\xd8\xe6t\xe5?'
p502
tp503
Rp504
ag4
(g8
S'w\xc4\x1dqG\xdc\xe1?'
p505
tp506
Rp507
aF0.008934974670410156
aI173
aS'kernel = 0 degree'
p508
ag4
(g8
S'k\x98\x1d\x1cA\xa4\xe5?'
p509
tp510
Rp511
ag4
(g8
S'\xad\xf9a\x912\xf0\xe4?'
p512
tp513
Rp514
aF0.013523101806640625
aI173
aS'kernel = 0 degree'
p515
aa(lp516
g4
(g8
S'\x84#\x88\xb4^\xc0\xe6?'
p517
tp518
Rp519
ag4
(g8
S'UUUUUU\xe5?'
p520
tp521
Rp522
aF0.011644124984741211
aI173
aS'kernel = 0 degree'
p523
ag4
(g8
S'\xea*\xcf\xc4\xc7}\xe7?'
p524
tp525
Rp526
ag4
(g8
S'\xaf^\xbdz\xf5\xea\xe5?'
p527
tp528
Rp529
aF0.00913381576538086
aI173
aS'kernel = 0 degree'
p530
ag4
(g8
S'\x1e\x1cA\xa4\xf5\x02\xe6?'
p531
tp532
Rp533
ag4
(g8
S'\xe8\xa2\x8b.\xba\xe8\xe2?'
p534
tp535
Rp536
aF0.015686988830566406
aI173
aS'kernel = 0 degree'
p537
aa(lp538
g4
(g8
S'\xf7\xddR\xe8O2\xe6?'
p539
tp540
Rp541
ag4
(g8
S'\x9a\xb6\xc6\xdf\xcd#\xe4?'
p542
tp543
Rp544
aF0.016019821166992188
aI173
aS'kernel = 0 degree'
p545
ag4
(g8
S'\xea*\xcf\xc4\xc7}\xe7?'
p546
tp547
Rp548
ag4
(g8
S'\x17~5&\xd2\x03\xe5?'
p549
tp550
Rp551
aF0.015413045883178711
aI173
aS'kernel = 0 degree'
p552
ag4
(g8
S'\xd1\x9fd,\xaaa\xe6?'
p553
tp554
Rp555
ag4
(g8
S'333333\xe3?'
p556
tp557
Rp558
aF0.013292074203491211
aI173
aS'kernel = 0 degree'
p559
aa(lp560
g4
(g8
S'\x1e\x1cA\xa4\xf5\x02\xe6?'
p561
tp562
Rp563
ag4
(g8
S'\x1b\xcak(\xaf\xa1\xe4?'
p564
tp565
Rp566
aF0.016566991806030273
aI173
aS'kernel = 0 degree'
p567
ag4
(g8
S'\xd1\x9fd,\xaaa\xe6?'
p568
tp569
Rp570
ag4
(g8
S'\x1c\xc7q\x1c\xc7q\xe4?'
p571
tp572
Rp573
aF0.014263153076171875
aI173
aS'kernel = 0 degree'
p574
ag4
(g8
S'\x91\xd6\x0b\xd8\xe6t\xe5?'
p575
tp576
Rp577
ag4
(g8
S'<T\xb7Cu;\xe4?'
p578
tp579
Rp580
aF0.01450490951538086
aI173
aS'kernel = 0 degree'
p581
aa(lp582
g4
(g8
S'\x91\xd6\x0b\xd8\xe6t\xe5?'
p583
tp584
Rp585
ag4
(g8
S'\x16T{N\xa6\xaf\xe2?'
p586
tp587
Rp588
aF0.01610708236694336
aI173
aS'kernel = 0 degree'
p589
ag4
(g8
S'Q\r\xb3\x83#\x88\xe4?'
p590
tp591
Rp592
ag4
(g8
S'iiiiii\xe1?'
p593
tp594
Rp595
aF0.009072065353393555
aI173
aS'kernel = 0 degree'
p596
ag4
(g8
S'\x04\x91\xd6\x0b\xd8\xe6\xe4?'
p597
tp598
Rp599
ag4
(g8
S'\x93$I\x92$I\xe2?'
p600
tp601
Rp602
aF0.008165121078491211
aI173
aS'kernel = 0 degree'
p603
aa(lp604
g4
(g8
S'\x84#\x88\xb4^\xc0\xe6?'
p605
tp606
Rp607
ag4
(g8
S'\xa8P\xa1B\x85\n\xe5?'
p608
tp609
Rp610
aF0.012309074401855469
aI173
aS'kernel = 0 degree'
p611
ag4
(g8
S']\xe5\x99\xf8\xb8\xef\xe6?'
p612
tp613
Rp614
ag4
(g8
S'\xa7\xad\xf1w\xf3\x08\xe5?'
p615
tp616
Rp617
aF0.009154796600341797
aI173
aS'kernel = 0 degree'
p618
ag4
(g8
S'xK\xa1?\xc9X\xe4?'
p619
tp620
Rp621
ag4
(g8
S'\xaf0\xabQ\xc4\xa1\xe3?'
p622
tp623
Rp624
aF0.013195991516113281
aI173
aS'kernel = 1 degree'
p625
aa(lp626
g4
(g8
S'\xea*\xcf\xc4\xc7}\xe7?'
p627
tp628
Rp629
ag4
(g8
S'\xaf^\xbdz\xf5\xea\xe5?'
p630
tp631
Rp632
aF0.015764951705932617
aI173
aS'kernel = 0 degree'
p633
ag4
(g8
S'\x10i\xbd\x80mN\xe7?'
p634
tp635
Rp636
ag4
(g8
S'q\xa5{\x03\xca\xc4\xe5?'
p637
tp638
Rp639
aF0.015531063079833984
aI173
aS'kernel = 0 degree'
p640
ag4
(g8
S'\xf7\xddR\xe8O2\xe6?'
p641
tp642
Rp643
ag4
(g8
S'Rv\xbfQv\xbf\xe1?'
p644
tp645
Rp646
aF0.013347148895263672
aI173
aS'kernel = 0 degree'
p647
aa(lp648
g4
(g8
S'\xea*\xcf\xc4\xc7}\xe7?'
p649
tp650
Rp651
ag4
(g8
S'------\xe5?'
p652
tp653
Rp654
aF0.009776115417480469
aI173
aS'kernel = 0 degree'
p655
ag4
(g8
S'\xc3\xec\xe0\x08"\xad\xe7?'
p656
tp657
Rp658
ag4
(g8
S'\xb4\xa0\xdas2}\xe5?'
p659
tp660
Rp661
aF0.018843889236450195
aI173
aS'kernel = 0 degree'
p662
ag4
(g8
S'\xea*\xcf\xc4\xc7}\xe7?'
p663
tp664
Rp665
ag4
(g8
S'H\xb4\xc2\xe6@\xa2\xe5?'
p666
tp667
Rp668
aF0.014856100082397461
aI173
aS'kernel = 0 degree'
p669
aa(lp670
g4
(g8
S'\x9d\xae\xf2L|\xdc\xe7?'
p671
tp672
Rp673
ag4
(g8
S'];0\xd7\x0e\xcc\xe5?'
p674
tp675
Rp676
aF0.01617717742919922
aI173
aS'kernel = 0 degree'
p677
ag4
(g8
S'7\xa7\xab<\x13\x1f\xe7?'
p678
tp679
Rp680
ag4
(g8
S'\xf2Y7\x98"\x9f\xe5?'
p681
tp682
Rp683
aF0.011389970779418945
aI173
aS'kernel = 0 degree'
p684
ag4
(g8
S'\x04\x91\xd6\x0b\xd8\xe6\xe4?'
p685
tp686
Rp687
ag4
(g8
S'\xb2\x13;\xb1\x13;\xe1?'
p688
tp689
Rp690
aF0.01394200325012207
aI173
aS'kernel = 0 degree'
p691
aa(lp692
g4
(g8
S'\xd1\x9fd,\xaaa\xe6?'
p693
tp694
Rp695
ag4
(g8
S'\x1c\xc7q\x1c\xc7q\xe4?'
p696
tp697
Rp698
aF0.011989831924438477
aI173
aS'kernel = 0 degree'
p699
ag4
(g8
S']\xe5\x99\xf8\xb8\xef\xe6?'
p700
tp701
Rp702
ag4
(g8
S')F\r\x7f\x9bb\xe4?'
p703
tp704
Rp705
aF0.01494908332824707
aI173
aS'kernel = 0 degree'
p706
ag4
(g8
S'\x9d\xae\xf2L|\xdc\xe7?'
p707
tp708
Rp709
ag4
(g8
S'\x9e6\xd0i\x03\x9d\xe6?'
p710
tp711
Rp712
aF0.013106822967529297
aI173
aS'kernel = 0 degree'
p713
aa(lp714
g4
(g8
S'\xf7\xddR\xe8O2\xe6?'
p715
tp716
Rp717
ag4
(g8
S'\x9a\xb6\xc6\xdf\xcd#\xe4?'
p718
tp719
Rp720
aF0.015536069869995117
aI173
aS'kernel = 0 degree'
p721
ag4
(g8
S'\x1e\x1cA\xa4\xf5\x02\xe6?'
p722
tp723
Rp724
ag4
(g8
S'\x00\x00\x00\x00\x00\x00\xe4?'
p725
tp726
Rp727
aF0.01445913314819336
aI173
aS'kernel = 0 degree'
p728
ag4
(g8
S'\x91\xd6\x0b\xd8\xe6t\xe5?'
p729
tp730
Rp731
ag4
(g8
S';T\xb7Cu;\xe4?'
p732
tp733
Rp734
aF0.013323068618774414
aI173
aS'kernel = 0 degree'
p735
aa(lp736
g4
(g8
S'\xf7\xddR\xe8O2\xe6?'
p737
tp738
Rp739
ag4
(g8
S'\xb8\x15\x8a[\xa1\xb8\xe5?'
p740
tp741
Rp742
aF0.01760411262512207
aI173
aS'kernel = 0 degree'
p743
ag4
(g8
S'\xaaavp\x04\x91\xe6?'
p744
tp745
Rp746
ag4
(g8
S'\x83\xee*\xc5\x04\xdd\xe5?'
p747
tp748
Rp749
aF0.01435399055480957
aI173
aS'kernel = 0 degree'
p750
ag4
(g8
S'vp\x04\x91\xd6\x0b\xe8?'
p751
tp752
Rp753
ag4
(g8
S'\xa9\xd7\x91z\x1d\xa9\xe7?'
p754
tp755
Rp756
aF0.013204097747802734
aI173
aS'kernel = 0 degree'
p757
aa(lp758
g4
(g8
S'\x1e\x1cA\xa4\xf5\x02\xe6?'
p759
tp760
Rp761
ag4
(g8
S'0E>\xeb\x06S\xe4?'
p762
tp763
Rp764
aF0.009819984436035156
aI173
aS'kernel = 0 degree'
p765
ag4
(g8
S'\x1e\x1cA\xa4\xf5\x02\xe6?'
p766
tp767
Rp768
ag4
(g8
S'\x1b\xcak(\xaf\xa1\xe4?'
p769
tp770
Rp771
aF0.014699935913085938
aI173
aS'kernel = 0 degree'
p772
ag4
(g8
S'\x10i\xbd\x80mN\xe7?'
p773
tp774
Rp775
ag4
(g8
S'r\xa5{\x03\xca\xc4\xe5?'
p776
tp777
Rp778
aF0.013282060623168945
aI173
aS'kernel = 0 degree'
p779
aa(lp780
g4
(g8
S'\x10i\xbd\x80mN\xe7?'
p781
tp782
Rp783
ag4
(g8
S'v\x18e*\x9ek\xe6?'
p784
tp785
Rp786
aF0.01006317138671875
aI173
aS'kernel = 0 degree'
p787
ag4
(g8
S'\x9d\xae\xf2L|\xdc\xe7?'
p788
tp789
Rp790
ag4
(g8
S',n\xc2\xfc\xae\x16\xe7?'
p791
tp792
Rp793
aF0.009052038192749023
aI173
aS'kernel = 0 degree'
p794
ag4
(g8
S']\xe5\x99\xf8\xb8\xef\xe6?'
p795
tp796
Rp797
ag4
(g8
S'\x16k\xc0\x15k\xc0\xe5?'
p798
tp799
Rp800
aF0.016900062561035156
aI173
aS'kernel = 0 degree'
p801
aa(lp802
g4
(g8
S'\xf7\xddR\xe8O2\xe6?'
p803
tp804
Rp805
ag4
(g8
S'\xff6\xc5\xa8\xe1o\xe3?'
p806
tp807
Rp808
aF0.009672880172729492
aI173
aS'kernel = 0 degree'
p809
ag4
(g8
S'DZ/`\x9b\xd3\xe5?'
p810
tp811
Rp812
ag4
(g8
S'h/\xa1\xbd\x84\xf6\xe2?'
p813
tp814
Rp815
aF0.01462697982788086
aI173
aS'kernel = 0 degree'
p816
ag4
(g8
S']\xe5\x99\xf8\xb8\xef\xe6?'
p817
tp818
Rp819
ag4
(g8
S'\x15\x7f\x913,\xb8\xe4?'
p820
tp821
Rp822
aF0.013265848159790039
aI173
aS'kernel = 0 degree'
p823
aa(lp824
g4
(g8
S'7\xa7\xab<\x13\x1f\xe7?'
p825
tp826
Rp827
ag4
(g8
S'\x8f\xec\x19\x88JG\xe6?'
p828
tp829
Rp830
aF0.009924173355102539
aI173
aS'kernel = 0 degree'
p831
ag4
(g8
S'\x1e\x1cA\xa4\xf5\x02\xe6?'
p832
tp833
Rp834
ag4
(g8
S'\xec\x1dS\x03{\xc7\xe4?'
p835
tp836
Rp837
aF0.013972043991088867
aI173
aS'kernel = 0 degree'
p838
ag4
(g8
S'\x1e\x1cA\xa4\xf5\x02\xe6?'
p839
tp840
Rp841
ag4
(g8
S'\xec\x1dS\x03{\xc7\xe4?'
p842
tp843
Rp844
aF0.008147001266479492
aI173
aS'kernel = 0 degree'
p845
aa(lp846
g4
(g8
S'\xea*\xcf\xc4\xc7}\xe7?'
p847
tp848
Rp849
ag4
(g8
S'\xaf^\xbdz\xf5\xea\xe5?'
p850
tp851
Rp852
aF0.015330076217651367
aI173
aS'kernel = 0 degree'
p853
ag4
(g8
S'P2\x16\xd50;\xe8?'
p854
tp855
Rp856
ag4
(g8
S"(vb'vb\xe7?"
p857
tp858
Rp859
aF0.013978958129882812
aI173
aS'kernel = 0 degree'
p860
ag4
(g8
S'7\xa7\xab<\x13\x1f\xe7?'
p861
tp862
Rp863
ag4
(g8
S'\xc3\xf5(\\\x8f\xc2\xe5?'
p864
tp865
Rp866
aF0.008007049560546875
aI173
aS'kernel = 0 degree'
p867
aa(lp868
g4
(g8
S'k\x98\x1d\x1cA\xa4\xe5?'
p869
tp870
Rp871
ag4
(g8
S'\x0et\xda@\xa7\r\xe4?'
p872
tp873
Rp874
aF0.010065078735351562
aI173
aS'kernel = 0 degree'
p875
ag4
(g8
S'\x84#\x88\xb4^\xc0\xe6?'
p876
tp877
Rp878
ag4
(g8
S'\xa8P\xa1B\x85\n\xe5?'
p879
tp880
Rp881
aF0.008683919906616211
aI173
aS'kernel = 0 degree'
p882
ag4
(g8
S'\x85\xfe$cQ\r\xe3?'
p883
tp884
Rp885
ag4
(g8
S'\xbe\xa0/\xe8\x0b\xfa\xe2?'
p886
tp887
Rp888
aF0.008116006851196289
aI173
aS'kernel = 0 degree'
p889
aa(lp890
g4
(g8
S'\x10i\xbd\x80mN\xe7?'
p891
tp892
Rp893
ag4
(g8
S'\xe2\x0c\x08%w\x8a\xe6?'
p894
tp895
Rp896
aF0.01606583595275879
aI173
aS'kernel = 0 degree'
p897
ag4
(g8
S'\xea*\xcf\xc4\xc7}\xe7?'
p898
tp899
Rp900
ag4
(g8
S'/\x96\xfcb\xc9/\xe6?'
p901
tp902
Rp903
aF0.00892496109008789
aI173
aS'kernel = 0 degree'
p904
ag4
(g8
S'\x9e\x89\x8f\xfbn)\xe4?'
p905
tp906
Rp907
ag4
(g8
S'\xf4<\xcf\xf3<\xcf\xe3?'
p908
tp909
Rp910
aF0.013750791549682617
aI173
aS'kernel = 0 degree'
p911
aa(lp912
g4
(g8
S'7\xa7\xab<\x13\x1f\xe7?'
p913
tp914
Rp915
ag4
(g8
S'\xf2Y7\x98"\x9f\xe5?'
p916
tp917
Rp918
aF0.009876012802124023
aI173
aS'kernel = 0 degree'
p919
ag4
(g8
S'P2\x16\xd50;\xe8?'
p920
tp921
Rp922
ag4
(g8
S' \xd1\n\x9b\x03\x89\xe6?'
p923
tp924
Rp925
aF0.015221834182739258
aI173
aS'kernel = 0 degree'
p926
ag4
(g8
S'k\x98\x1d\x1cA\xa4\xe5?'
p927
tp928
Rp929
ag4
(g8
S'\xe87[\x87~\xb3\xe5?'
p930
tp931
Rp932
aF0.012932062149047852
aI173
aS'kernel = 0 degree'
p933
aa(lp934
g4
(g8
S'\xd1\x9fd,\xaaa\xe6?'
p935
tp936
Rp937
ag4
(g8
S'?\xa3\xc4\xcf(\xf1\xe3?'
p938
tp939
Rp940
aF0.009629011154174805
aI173
aS'kernel = 0 degree'
p941
ag4
(g8
S'\xb7\x14\xfa\x93\x8cE\xe5?'
p942
tp943
Rp944
ag4
(g8
S'\xf0\xc1\x07\x1f|\xf0\xe1?'
p945
tp946
Rp947
aF0.00878000259399414
aI173
aS'kernel = 0 degree'
p948
ag4
(g8
S'+\xcf\xc4\xc7}\xb7\xe4?'
p949
tp950
Rp951
ag4
(g8
S'\xfc\xa9\xf1\xd2Mb\xe0?'
p952
tp953
Rp954
aF0.00825190544128418
aI173
aS'kernel = 0 degree'
p955
aa(lp956
g4
(g8
S'\xf7\xddR\xe8O2\xe6?'
p957
tp958
Rp959
ag4
(g8
S'\xff6\xc5\xa8\xe1o\xe3?'
p960
tp961
Rp962
aF0.015861988067626953
aI173
aS'kernel = 0 degree'
p963
ag4
(g8
S'\xd1\x9fd,\xaaa\xe6?'
p964
tp965
Rp966
ag4
(g8
S'\xb2,\xcb\xb2,\xcb\xe2?'
p967
tp968
Rp969
aF0.008939981460571289
aI173
aS'kernel = 0 degree'
p970
ag4
(g8
S'\x1e\x1cA\xa4\xf5\x02\xe6?'
p971
tp972
Rp973
ag4
(g8
S'KKKKKK\xe3?'
p974
tp975
Rp976
aF0.008185863494873047
aI173
aS'kernel = 0 degree'
p977
aa(lp978
g4
(g8
S'\xc3\xec\xe0\x08"\xad\xe7?'
p979
tp980
Rp981
ag4
(g8
S'\xb6\xd6Zk\xad\xb5\xe6?'
p982
tp983
Rp984
aF0.009727001190185547
aI173
aS'kernel = 0 degree'
p985
ag4
(g8
S'\xb69]\xe5\x99\xf8\xe8?'
p986
tp987
Rp988
ag4
(g8
S'cj`\xef\x98\x1a\xe8?'
p989
tp990
Rp991
aF0.012459993362426758
aI173
aS'kernel = 0 degree'
p992
ag4
(g8
S'\x10i\xbd\x80mN\xe7?'
p993
tp994
Rp995
ag4
(g8
S'u\x18e*\x9ek\xe6?'
p996
tp997
Rp998
aF0.008337020874023438
aI173
aS'kernel = 0 degree'
p999
aa(lp1000
g4
(g8
S'\x1e\x1cA\xa4\xf5\x02\xe6?'
p1001
tp1002
Rp1003
ag4
(g8
S'\xa0rv\x0b\xbf\x1a\xe3?'
p1004
tp1005
Rp1006
aF0.010107994079589844
aI173
aS'kernel = 0 degree'
p1007
ag4
(g8
S'\x91\xd6\x0b\xd8\xe6t\xe5?'
p1008
tp1009
Rp1010
ag4
(g8
S'\x17T{N\xa6\xaf\xe2?'
p1011
tp1012
Rp1013
aF0.008857965469360352
aI173
aS'kernel = 0 degree'
p1014
ag4
(g8
S'DZ/`\x9b\xd3\xe5?'
p1015
tp1016
Rp1017
ag4
(g8
S'\xd5)\x7f\xd4)\x7f\xe4?'
p1018
tp1019
Rp1020
aF0.008193016052246094
aI173
aS'kernel = 0 degree'
p1021
aa(lp1022
g4
(g8
S'\x84#\x88\xb4^\xc0\xe6?'
p1023
tp1024
Rp1025
ag4
(g8
S'\xd44M\xd34M\xe3?'
p1026
tp1027
Rp1028
aF0.00958395004272461
aI173
aS'kernel = 0 degree'
p1029
ag4
(g8
S'\x10i\xbd\x80mN\xe7?'
p1030
tp1031
Rp1032
ag4
(g8
S'\n\x85B\xa1P(\xe4?'
p1033
tp1034
Rp1035
aF0.014934062957763672
aI173
aS'kernel = 0 degree'
p1036
ag4
(g8
S'\xaaavp\x04\x91\xe6?'
p1037
tp1038
Rp1039
ag4
(g8
S'c\x9e>ZMB\xe4?'
p1040
tp1041
Rp1042
aF0.011723041534423828
aI173
aS'kernel = 0 degree'
p1043
aa(lp1044
g4
(g8
S'\xc3\xec\xe0\x08"\xad\xe7?'
p1045
tp1046
Rp1047
ag4
(g8
S'\xb4\xdaY\xed\xacv\xe6?'
p1048
tp1049
Rp1050
aF0.009699821472167969
aI173
aS'kernel = 0 degree'
p1051
ag4
(g8
S']\xe5\x99\xf8\xb8\xef\xe6?'
p1052
tp1053
Rp1054
ag4
(g8
S'UUUUUU\xe5?'
p1055
tp1056
Rp1057
aF0.008981943130493164
aI173
aS'kernel = 0 degree'
p1058
ag4
(g8
S'\xed\xe0\x08"\xad\x17\xe0?'
p1059
tp1060
Rp1061
ag4
(g8
S'\x15EQ\x14EQ\xd4?'
p1062
tp1063
Rp1064
aF0.008149147033691406
aI173
aS'kernel = 1 degree'
p1065
aa(lp1066
g4
(g8
S'DZ/`\x9b\xd3\xe5?'
p1067
tp1068
Rp1069
ag4
(g8
S'\x02e\xe2J\xf7\x06\xe4?'
p1070
tp1071
Rp1072
aF0.009742021560668945
aI173
aS'kernel = 0 degree'
p1073
ag4
(g8
S'\xd1\x9fd,\xaaa\xe6?'
p1074
tp1075
Rp1076
ag4
(g8
S'\x04\x89V\xd8\x1cH\xe4?'
p1077
tp1078
Rp1079
aF0.008903026580810547
aI173
aS'kernel = 0 degree'
p1080
ag4
(g8
S'DZ/`\x9b\xd3\xe5?'
p1081
tp1082
Rp1083
ag4
(g8
S'\xda=l}\x1b0\xe4?'
p1084
tp1085
Rp1086
aF0.008440971374511719
aI173
aS'kernel = 0 degree'
p1087
aa(lp1088
g4
(g8
S'\xc3\xec\xe0\x08"\xad\xe7?'
p1089
tp1090
Rp1091
ag4
(g8
S'\xb2\xa4\x1c\x10\x19\xee\xe5?'
p1092
tp1093
Rp1094
aF0.013289213180541992
aI173
aS'kernel = 0 degree'
p1095
ag4
(g8
S'\xaaavp\x04\x91\xe6?'
p1096
tp1097
Rp1098
ag4
(g8
S'\xab\xc4Tb*1\xe5?'
p1099
tp1100
Rp1101
aF0.0090789794921875
aI173
aS'kernel = 0 degree'
p1102
ag4
(g8
S'\x84#\x88\xb4^\xc0\xe6?'
p1103
tp1104
Rp1105
ag4
(g8
S'\xa8P\xa1B\x85\n\xe5?'
p1106
tp1107
Rp1108
aF0.011750936508178711
aI173
aS'kernel = 0 degree'
p1109
aas.