(dp0
S'segment'
p1
(lp2
(lp3
cnumpy.core.multiarray
scalar
p4
(cnumpy
dtype
p5
(S'f8'
p6
I0
I1
tp7
Rp8
(I3
S'<'
p9
NNNI-1
I-1
I0
tp10
bS'\xfa&T\x81\xae\xdb\xe8?'
p11
tp12
Rp13
ag4
(g8
S'\xd0\x86\xc1\xe4\xf9l\xe8?'
p14
tp15
Rp16
aF0.17928481101989746
aI578
aS'kernel = 1 degree'
p17
ag4
(g8
S'\xbb\x8d`3\x06\xd9\xeb?'
p18
tp19
Rp20
ag4
(g8
S'0\xd3\xc6^\xc8+\xeb?'
p21
tp22
Rp23
aF0.11717104911804199
aI578
aS'kernel = 1 degree'
p24
ag4
(g8
S'(s\xbe\tU\xa0\xeb?'
p25
tp26
Rp27
ag4
(g8
S'\x8b\xa1o\xf0@\xb3\xea?'
p28
tp29
Rp30
aF0.10764789581298828
aI578
aS'kernel = 1 degree'
p31
aa(lp32
g4
(g8
S':\xdf\x84*\xd0u\xeb?'
p33
tp34
Rp35
ag4
(g8
S'\xa2\xf2\xb4\xd0\x1d\xbb\xea?'
p36
tp37
Rp38
aF0.12315893173217773
aI578
aS'kernel = 1 degree'
p39
ag4
(g8
S'\xcd\xf9&T\x81\xae\xeb?'
p40
tp41
Rp42
ag4
(g8
S'\xc6b\xb1X,\x16\xeb?'
p43
tp44
Rp45
aF0.1458148956298828
aI578
aS'kernel = 1 degree'
p46
ag4
(g8
S'\xb6\xd3\xf1\x0f.L\xea?'
p47
tp48
Rp49
ag4
(g8
S'\x9a\x99\x99\x99\x99\x99\xe9?'
p50
tp51
Rp52
aF0.10984182357788086
aI578
aS'kernel = 1 degree'
p53
aa(lp54
g4
(g8
S'\xf4l\xe5]\xd6N\xe7?'
p55
tp56
Rp57
ag4
(g8
S'\xfbg\xd6CKH\xe6?'
p58
tp59
Rp60
aF0.13219690322875977
aI578
aS'kernel = 1 degree'
p61
ag4
(g8
S'\x92\xfbd\xce7\xa1\xea?'
p62
tp63
Rp64
ag4
(g8
S'\xdd\xa3Q,\xec\xed\xe8?'
p65
tp66
Rp67
aF0.05767703056335449
aI578
aS'kernel = 1 degree'
p68
ag4
(g8
S'KKKKKK\xeb?'
p69
tp70
Rp71
ag4
(g8
S'\xd5\xaaU\xabV\xad\xea?'
p72
tp73
Rp74
aF0.04920196533203125
aI578
aS'kernel = 1 degree'
p75
aa(lp76
g4
(g8
S'xxxxxx\xe8?'
p77
tp78
Rp79
ag4
(g8
S'333333\xe9?'
p80
tp81
Rp82
aF0.060591936111450195
aI578
aS'kernel = 1 degree'
p83
ag4
(g8
S'{\xd5/\x8a\xe4>\xe9?'
p84
tp85
Rp86
ag4
(g8
S'4\x0b\xbb\xcfwm\xe9?'
p87
tp88
Rp89
aF0.0514378547668457
aI578
aS'kernel = 1 degree'
p90
ag4
(g8
S'I\xee\x939\xdf\x84\xea?'
p91
tp92
Rp93
ag4
(g8
S'\x9e\xabX6\xbe\x19\xea?'
p94
tp95
Rp96
aF0.0497589111328125
aI578
aS'kernel = 1 degree'
p97
aa(lp98
g4
(g8
S':\xdf\x84*\xd0u\xeb?'
p99
tp100
Rp101
ag4
(g8
S'\xb6\xd6Zk\xad\xb5\xea?'
p102
tp103
Rp104
aF0.062004804611206055
aI578
aS'kernel = 1 degree'
p105
ag4
(g8
S'\xca\x9coB\x15\xe8\xea?'
p106
tp107
Rp108
ag4
(g8
S'\xa2\x82lC@\xf1\xe9?'
p109
tp110
Rp111
aF0.054780006408691406
aI578
aS'kernel = 1 degree'
p112
ag4
(g8
S'\x95X\x1c\xe0\xa3g\xeb?'
p113
tp114
Rp115
ag4
(g8
S'\xf8\xef\xd0Td\xa2\xea?'
p116
tp117
Rp118
aF0.027940988540649414
aI578
aS'kernel = 1 degree'
p119
aa(lp120
g4
(g8
S'\xbb\x8d`3\x06\xd9\xeb?'
p121
tp122
Rp123
ag4
(g8
S'\xe9\xd4<\xc8]?\xeb?'
p124
tp125
Rp126
aF0.06203794479370117
aI578
aS'kernel = 1 degree'
p127
ag4
(g8
S'/k\xa7\xe3\x1f\\\xe8?'
p128
tp129
Rp130
ag4
(g8
S'\xf9pE\xeb\x8b\x0f\xe7?'
p131
tp132
Rp133
aF0.05760478973388672
aI578
aS'kernel = 1 degree'
p134
ag4
(g8
S'7\x82\xcd\x18d\xaf\xea?'
p135
tp136
Rp137
ag4
(g8
S'}>\x9f\xcf\xe7\xf3\xe9?'
p138
tp139
Rp140
aF0.049447059631347656
aI578
aS'kernel = 1 degree'
p141
aa(lp142
g4
(g8
S'\x04\x9b1\xc8^\xf5\xeb?'
p143
tp144
Rp145
ag4
(g8
S'@\x80\x99\xc2K{\xeb?'
p146
tp147
Rp148
aF0.06167912483215332
aI578
aS'kernel = 1 degree'
p149
ag4
(g8
S'7\x82\xcd\x18d\xaf\xea?'
p150
tp151
Rp152
ag4
(g8
S'}>\x9f\xcf\xe7\xf3\xe9?'
p153
tp154
Rp155
aF0.05450582504272461
aI578
aS'kernel = 1 degree'
p156
ag4
(g8
S']\xb7\x11l\xc6 \xeb?'
p157
tp158
Rp159
ag4
(g8
S'tI,S\x1f\x0f\xea?'
p160
tp161
Rp162
aF0.0327000617980957
aI578
aS'kernel = 1 degree'
p163
aa(lp164
g4
(g8
S'`\x14\xc9}2\xe7\xeb?'
p165
tp166
Rp167
ag4
(g8
S'][[[[[\xeb?'
p168
tp169
Rp170
aF0.035826921463012695
aI578
aS'kernel = 1 degree'
p171
ag4
(g8
S'\xe1\xc2\xa4\x86hJ\xec?'
p172
tp173
Rp174
ag4
(g8
S'\r\xb8\x1d\x95&\xa2\xeb?'
p175
tp176
Rp177
aF0.05557513236999512
aI578
aS'kernel = 1 degree'
p178
ag4
(g8
S't\xddF\xb0\x19\x83\xec?'
p179
tp180
Rp181
ag4
(g8
S'\xbfs\xe6R\xe3\xe4\xeb?'
p182
tp183
Rp184
aF0.027957916259765625
aI578
aS'kernel = 1 degree'
p185
aa(lp186
g4
(g8
S'I\xee\x939\xdf\x84\xea?'
p187
tp188
Rp189
ag4
(g8
S'\x8c\xb4\xea}pE\xea?'
p190
tp191
Rp192
aF0.036659955978393555
aI578
aS'kernel = 1 degree'
p193
ag4
(g8
S'\x80\x8f\x9e\xad\xbc\xcb\xea?'
p194
tp195
Rp196
ag4
(g8
S'\xab\xaa\xaa\xaa\xaa\xaa\xea?'
p197
tp198
Rp199
aF0.0323638916015625
aI578
aS'kernel = 1 degree'
p200
ag4
(g8
S'\xa9!\x9a\x12\x8b\x03\xec?'
p201
tp202
Rp203
ag4
(g8
S'\xdb\xb6m\xdb\xb6m\xeb?'
p204
tp205
Rp206
aF0.04823803901672363
aI578
aS'kernel = 1 degree'
p207
aa(lp208
g4
(g8
S'\xdee\xedt\xfc\x83\xeb?'
p209
tp210
Rp211
ag4
(g8
S'K\x95\xcb\xcf\xecB\xeb?'
p212
tp213
Rp214
aF0.0622408390045166
aI578
aS'kernel = 1 degree'
p215
ag4
(g8
S'iiiiii\xe9?'
p216
tp217
Rp218
ag4
(g8
S'\x0c\xd6\x17\xfe\xa3\xe8\xe8?'
p219
tp220
Rp221
aF0.03285694122314453
aI578
aS'kernel = 1 degree'
p222
ag4
(g8
S'\x13\xaa@\xd7m\x04\xeb?'
p223
tp224
Rp225
ag4
(g8
S'G\x9b\xf7).\x19\xea?'
p226
tp227
Rp228
aF0.04840397834777832
aI578
aS'kernel = 1 degree'
p229
aa(lp230
g4
(g8
S'\xc7?\xb80\xa9!\xea?'
p231
tp232
Rp233
ag4
(g8
S'\xdb\xb6m\xdb\xb6m\xe8?'
p234
tp235
Rp236
aF0.03573107719421387
aI578
aS'kernel = 1 degree'
p237
ag4
(g8
S'\xb6\xd3\xf1\x0f.L\xea?'
p238
tp239
Rp240
ag4
(g8
S'\xcfV-\xf2\x96\xe1\xe8?'
p241
tp242
Rp243
aF0.053598880767822266
aI578
aS'kernel = 1 degree'
p244
ag4
(g8
S'\xc7?\xb80\xa9!\xea?'
p245
tp246
Rp247
ag4
(g8
S'\xf2\xc0U\xb43\xa5\xe7?'
p248
tp249
Rp250
aF0.02789902687072754
aI578
aS'kernel = 1 degree'
p251
aa(lp252
g4
(g8
S'\x04\x9b1\xc8^\xf5\xeb?'
p253
tp254
Rp255
ag4
(g8
S'\x9b\xd2\x9d1\xfa.\xeb?'
p256
tp257
Rp258
aF0.06295585632324219
aI578
aS'kernel = 1 degree'
p259
ag4
(g8
S'\xb80\xa9!\x9a\x12\xeb?'
p260
tp261
Rp262
ag4
(g8
S'D\xa1\xf1z9\x14\xea?'
p263
tp264
Rp265
aF0.03253006935119629
aI578
aS'kernel = 1 degree'
p266
ag4
(g8
S'\xbf(\x92\xfbd\xce\xe7?'
p267
tp268
Rp269
ag4
(g8
S'\x9f\x80\xe8|u\x8f\xe4?'
p270
tp271
Rp272
aF0.02968907356262207
aI578
aS'kernel = 1 degree'
p273
aa(lp274
g4
(g8
S'\x80\x8f\x9e\xad\xbc\xcb\xea?'
p275
tp276
Rp277
ag4
(g8
S'\x15\xbc\x9c\x82\x97S\xe8?'
p278
tp279
Rp280
aF0.037094831466674805
aI578
aS'kernel = 1 degree'
p281
ag4
(g8
S'\xd9\xab~Q$\xf7\xe9?'
p282
tp283
Rp284
ag4
(g8
S'\xf9\x8b\x19\xd0\x99\xbf\xe8?'
p285
tp286
Rp287
aF0.040924072265625
aI578
aS'kernel = 1 degree'
p288
ag4
(g8
S'\xdee\xedt\xfc\x83\xeb?'
p289
tp290
Rp291
ag4
(g8
S'-4`I/\x7f\xea?'
p292
tp293
Rp294
aF0.02780294418334961
aI578
aS'kernel = 1 degree'
p295
aa(lp296
g4
(g8
S'\xca\x9coB\x15\xe8\xea?'
p297
tp298
Rp299
ag4
(g8
S'k\xa5Vj\xa5V\xea?'
p300
tp301
Rp302
aF0.03615212440490723
aI578
aS'kernel = 1 degree'
p303
ag4
(g8
S'\x02>z\xb6\xf2.\xeb?'
p304
tp305
Rp306
ag4
(g8
S't\x10\xfe\xc3\xbb\xbc\xea?'
p307
tp308
Rp309
aF0.03157210350036621
aI578
aS'kernel = 1 degree'
p310
ag4
(g8
S'ZZZZZZ\xea?'
p311
tp312
Rp313
ag4
(g8
S'f2\x99L&\x93\xe9?'
p314
tp315
Rp316
aF0.028638124465942383
aI578
aS'kernel = 1 degree'
p317
aa(lp318
g4
(g8
S'q\x80\x8f\x9e\xad\xbc\xeb?'
p319
tp320
Rp321
ag4
(g8
S'\xa7\x92\xbd9\xf3\x14\xeb?'
p322
tp323
Rp324
aF0.03672003746032715
aI578
aS'kernel = 1 degree'
p325
ag4
(g8
S'7\x82\xcd\x18d\xaf\xea?'
p326
tp327
Rp328
ag4
(g8
S'\xce\xd6\xa1\xdfl\x1d\xea?'
p329
tp330
Rp331
aF0.03197002410888672
aI578
aS'kernel = 1 degree'
p332
ag4
(g8
S'(s\xbe\tU\xa0\xeb?'
p333
tp334
Rp335
ag4
(g8
S'T\x18\xec\x9b:\x8a\xea?'
p336
tp337
Rp338
aF0.027478933334350586
aI578
aS'kernel = 1 degree'
p339
aa(lp340
g4
(g8
S'z\xb6\xf2.k\xa7\xe3?'
p341
tp342
Rp343
ag4
(g8
S'~1"Tmu\xe3?'
p344
tp345
Rp346
aF0.03576302528381348
aI578
aS'kernel = 1 degree'
p347
ag4
(g8
S'\xcd\xf9&T\x81\xae\xeb?'
p348
tp349
Rp350
ag4
(g8
S'\xbecj`\xef\x98\xea?'
p351
tp352
Rp353
aF0.03194999694824219
aI578
aS'kernel = 1 degree'
p354
ag4
(g8
S']\xb7\x11l\xc6 \xeb?'
p355
tp356
Rp357
ag4
(g8
S'\xba\x9f\xfb\xb9\x9f\xfb\xe9?'
p358
tp359
Rp360
aF0.030740976333618164
aI578
aS'kernel = 1 degree'
p361
aa(lp362
g4
(g8
S'\xb0\x19\x83\xecU\xbf\xe8?'
p363
tp364
Rp365
ag4
(g8
S'N\x0c\x9e\xdaZ@\xe8?'
p366
tp367
Rp368
aF0.035981178283691406
aI578
aS'kernel = 1 degree'
p369
ag4
(g8
S'\xb3v:\xfe\xc1\x85\xe9?'
p370
tp371
Rp372
ag4
(g8
S'\x19u!.\r\x96\xe8?'
p373
tp374
Rp375
aF0.03288006782531738
aI578
aS'kernel = 1 degree'
p376
ag4
(g8
S'\xb6\xd3\xf1\x0f.L\xea?'
p377
tp378
Rp379
ag4
(g8
S'=\x9f\r\x83\xc9\xf3\xe9?'
p380
tp381
Rp382
aF0.0287630558013916
aI578
aS'kernel = 1 degree'
p383
aa(lp384
g4
(g8
S'\x16\x07\xf8\xe8\xd9\xca\xeb?'
p385
tp386
Rp387
ag4
(g8
S'\xf1\xb7)F\r\x7f\xeb?'
p388
tp389
Rp390
aF0.03707098960876465
aI578
aS'kernel = 1 degree'
p391
ag4
(g8
S':\xdf\x84*\xd0u\xeb?'
p392
tp393
Rp394
ag4
(g8
S'\x00\x00\x00\x00\x00\xe0\xea?'
p395
tp396
Rp397
aF0.03222084045410156
aI578
aS'kernel = 1 degree'
p398
ag4
(g8
S'\xa7\xc4\xe2\x00\x1f=\xeb?'
p399
tp400
Rp401
ag4
(g8
S'5\xad\xe3\xcd\t%\xea?'
p402
tp403
Rp404
aF0.02820897102355957
aI578
aS'kernel = 1 degree'
p405
aa(lp406
g4
(g8
S'\x8dA\xf6\xaa_\x14\xe9?'
p407
tp408
Rp409
ag4
(g8
S'\xc0z>AV\\\xe7?'
p410
tp411
Rp412
aF0.035768985748291016
aI578
aS'kernel = 1 degree'
p413
ag4
(g8
S'7\x82\xcd\x18d\xaf\xea?'
p414
tp415
Rp416
ag4
(g8
S'C`\xe5\xd0"\xdb\xe9?'
p417
tp418
Rp419
aF0.03224992752075195
aI578
aS'kernel = 1 degree'
p420
ag4
(g8
S':\xdf\x84*\xd0u\xeb?'
p421
tp422
Rp423
ag4
(g8
S'\x03\xb7\x08\xe8\xc1j\xea?'
p424
tp425
Rp426
aF0.028028011322021484
aI578
aS'kernel = 1 degree'
p427
aa(lp428
g4
(g8
S'%\x16\x07\xf8\xe8\xd9\xea?'
p429
tp430
Rp431
ag4
(g8
S'#%\xf1\x05d>\xea?'
p432
tp433
Rp434
aF0.036019086837768555
aI578
aS'kernel = 1 degree'
p435
ag4
(g8
S'\xff\xe0\xc2\xa4\x86h\xea?'
p436
tp437
Rp438
ag4
(g8
S'(R\x17\x1c\xf9N\xe9?'
p439
tp440
Rp441
aF0.03276491165161133
aI578
aS'kernel = 1 degree'
p442
ag4
(g8
S']\xb7\x11l\xc6 \xeb?'
p443
tp444
Rp445
ag4
(g8
S'\xd3Bw\xecjX\xea?'
p446
tp447
Rp448
aF0.027328014373779297
aI578
aS'kernel = 1 degree'
p449
aa(lp450
g4
(g8
S'\xdee\xedt\xfc\x83\xeb?'
p451
tp452
Rp453
ag4
(g8
S'T8\xd0\x8a\\\xe8\xea?'
p454
tp455
Rp456
aF0.035629987716674805
aI578
aS'kernel = 1 degree'
p457
ag4
(g8
S'\x92\xfbd\xce7\xa1\xea?'
p458
tp459
Rp460
ag4
(g8
S'\xd1\x83\xab\t;\xd4\xe9?'
p461
tp462
Rp463
aF0.031269073486328125
aI578
aS'kernel = 1 degree'
p464
ag4
(g8
S'7\x82\xcd\x18d\xaf\xea?'
p465
tp466
Rp467
ag4
(g8
S'\x15\x03%\xbc\xd1\xd4\xe9?'
p468
tp469
Rp470
aF0.028158903121948242
aI578
aS'kernel = 1 degree'
p471
aa(lp472
g4
(g8
S'I\xee\x939\xdf\x84\xea?'
p473
tp474
Rp475
ag4
(g8
S'\x8c\xb4\xea}pE\xea?'
p476
tp477
Rp478
aF0.036550045013427734
aI578
aS'kernel = 1 degree'
p479
ag4
(g8
S'q\x80\x8f\x9e\xad\xbc\xeb?'
p480
tp481
Rp482
ag4
(g8
S'[\xb0\x05[\xb0\x05\xeb?'
p483
tp484
Rp485
aF0.03217482566833496
aI578
aS'kernel = 1 degree'
p486
ag4
(g8
S'\x02>z\xb6\xf2.\xeb?'
p487
tp488
Rp489
ag4
(g8
S'\x0c\x18\x938x\xdf\xea?'
p490
tp491
Rp492
aF0.02838277816772461
aI578
aS'kernel = 1 degree'
p493
aa(lp494
g4
(g8
S'KKKKKK\xeb?'
p495
tp496
Rp497
ag4
(g8
S'\xb7,\xbdG~\xc7\xea?'
p498
tp499
Rp500
aF0.03496503829956055
aI578
aS'kernel = 1 degree'
p501
ag4
(g8
S'\x95X\x1c\xe0\xa3g\xeb?'
p502
tp503
Rp504
ag4
(g8
S'a\x95cB,\xc8\xea?'
p505
tp506
Rp507
aF0.03188300132751465
aI578
aS'kernel = 1 degree'
p508
ag4
(g8
S'\xc5\xe2\x00\x1f=[\xe9?'
p509
tp510
Rp511
ag4
(g8
S'yxxxxx\xe8?'
p512
tp513
Rp514
aF0.028006792068481445
aI578
aS'kernel = 1 degree'
p515
aa(lp516
g4
(g8
S'\xdee\xedt\xfc\x83\xeb?'
p517
tp518
Rp519
ag4
(g8
S'K\x95\xcb\xcf\xecB\xeb?'
p520
tp521
Rp522
aF0.03623199462890625
aI578
aS'kernel = 1 degree'
p523
ag4
(g8
S'\xedt\xfc\x83\x0b\x93\xea?'
p524
tp525
Rp526
ag4
(g8
S'\xe4\xec\x16~5&\xea?'
p527
tp528
Rp529
aF0.03234410285949707
aI578
aS'kernel = 1 degree'
p530
ag4
(g8
S'\x13\xaa@\xd7m\x04\xeb?'
p531
tp532
Rp533
ag4
(g8
S'\xc7f\xe4P\x97\xa5\xea?'
p534
tp535
Rp536
aF0.028306961059570312
aI578
aS'kernel = 1 degree'
p537
aa(lp538
g4
(g8
S'\x8a\xe4>\x99\xf3M\xe8?'
p539
tp540
Rp541
ag4
(g8
S'P\xa15\x80Z\xb8\xe8?'
p542
tp543
Rp544
aF0.036765098571777344
aI578
aS'kernel = 1 degree'
p545
ag4
(g8
S'\xcd\xf9&T\x81\xae\xeb?'
p546
tp547
Rp548
ag4
(g8
S'\xc6b\xb1X,\x16\xeb?'
p549
tp550
Rp551
aF0.033589839935302734
aI578
aS'kernel = 1 degree'
p552
ag4
(g8
S'\xf0\xd1\xb3\x95wY\xeb?'
p553
tp554
Rp555
ag4
(g8
S'\xf0\xa8KA\x07\x8f\xea?'
p556
tp557
Rp558
aF0.02815699577331543
aI578
aS'kernel = 1 degree'
p559
aa(lp560
g4
(g8
S'4%\x16\x07\xf8\xe8\xe9?'
p561
tp562
Rp563
ag4
(g8
S'\xa8\x87z\xa8\x87z\xe8?'
p564
tp565
Rp566
aF0.035939931869506836
aI578
aS'kernel = 1 degree'
p567
ag4
(g8
S'\xb80\xa9!\x9a\x12\xeb?'
p568
tp569
Rp570
ag4
(g8
S'n\x92:\xe4\xf4a\xea?'
p571
tp572
Rp573
aF0.03265118598937988
aI578
aS'kernel = 1 degree'
p574
ag4
(g8
S'\xedt\xfc\x83\x0b\x93\xea?'
p575
tp576
Rp577
ag4
(g8
S't:\x9dN\xa7\xd3\xe9?'
p578
tp579
Rp580
aF0.02757406234741211
aI578
aS'kernel = 1 degree'
p581
aa(lp582
g4
(g8
S'\xff\xe0\xc2\xa4\x86h\xea?'
p583
tp584
Rp585
ag4
(g8
S'Z\x8e\xe5X\x8e\xe5\xe8?'
p586
tp587
Rp588
aF0.04973101615905762
aI578
aS'kernel = 1 degree'
p589
ag4
(g8
S'\xcd\xf9&T\x81\xae\xeb?'
p590
tp591
Rp592
ag4
(g8
S'\xf9\xde{\xef\xbd\xf7\xea?'
p593
tp594
Rp595
aF0.03241705894470215
aI578
aS'kernel = 1 degree'
p596
ag4
(g8
S'#\xb9O\xe6|\x13\xea?'
p597
tp598
Rp599
ag4
(g8
S'\x84\t\x9f=\x98\xf0\xe9?'
p600
tp601
Rp602
aF0.028495073318481445
aI578
aS'kernel = 1 degree'
p603
aa(lp604
g4
(g8
S'7\x82\xcd\x18d\xaf\xea?'
p605
tp606
Rp607
ag4
(g8
S'.\xba\xe8\xa2\x8b.\xea?'
p608
tp609
Rp610
aF0.037049055099487305
aI578
aS'kernel = 1 degree'
p611
ag4
(g8
S'\x02>z\xb6\xf2.\xeb?'
p612
tp613
Rp614
ag4
(g8
S'\x0f\x1ay\xe7oq\xea?'
p615
tp616
Rp617
aF0.03289484977722168
aI578
aS'kernel = 1 degree'
p618
ag4
(g8
S'KKKKKK\xeb?'
p619
tp620
Rp621
ag4
(g8
S'\x81\x84\xc2\xfbW^\xea?'
p622
tp623
Rp624
aF0.029095172882080078
aI578
aS'kernel = 1 degree'
p625
aa(lp626
g4
(g8
S':\xdf\x84*\xd0u\xeb?'
p627
tp628
Rp629
ag4
(g8
S'\xb6\xd6Zk\xad\xb5\xea?'
p630
tp631
Rp632
aF0.03609919548034668
aI578
aS'kernel = 1 degree'
p633
ag4
(g8
S'\xdee\xedt\xfc\x83\xeb?'
p634
tp635
Rp636
ag4
(g8
S'\xbdK\x1e\x0c8\xe3\xea?'
p637
tp638
Rp639
aF0.032485008239746094
aI578
aS'kernel = 1 degree'
p640
ag4
(g8
S'\xfa&T\x81\xae\xdb\xe8?'
p641
tp642
Rp643
ag4
(g8
S'wp\x04\x91\xd6\x0b\xe8?'
p644
tp645
Rp646
aF0.028174877166748047
aI578
aS'kernel = 1 degree'
p647
aa(lp648
g4
(g8
S'%\x16\x07\xf8\xe8\xd9\xea?'
p649
tp650
Rp651
ag4
(g8
S'#%\xf1\x05d>\xea?'
p652
tp653
Rp654
aF0.0371851921081543
aI578
aS'kernel = 1 degree'
p655
ag4
(g8
S'\x95X\x1c\xe0\xa3g\xeb?'
p656
tp657
Rp658
ag4
(g8
S'\xd9\xbeD\x1eg\xad\xea?'
p659
tp660
Rp661
aF0.032681941986083984
aI578
aS'kernel = 1 degree'
p662
ag4
(g8
S'\x80\x8f\x9e\xad\xbc\xcb\xea?'
p663
tp664
Rp665
ag4
(g8
S'\t\x91}\xc9\x07H\xea?'
p666
tp667
Rp668
aF0.028874874114990234
aI578
aS'kernel = 1 degree'
p669
aa(lp670
g4
(g8
S'KKKKKK\xeb?'
p671
tp672
Rp673
ag4
(g8
S'\xb7,\xbdG~\xc7\xea?'
p674
tp675
Rp676
aF0.03479886054992676
aI578
aS'kernel = 1 degree'
p677
ag4
(g8
S'\xeb\x17Er\x9f\xcc\xe9?'
p678
tp679
Rp680
ag4
(g8
S'\xd1\xdcN\xe5\xd1\x81\xe7?'
p681
tp682
Rp683
aF0.032195091247558594
aI578
aS'kernel = 1 degree'
p684
ag4
(g8
S'~2\xe7\x9bP\x05\xea?'
p685
tp686
Rp687
ag4
(g8
S'\xfbU\x9c\x90\x92g\xe9?'
p688
tp689
Rp690
aF0.029030799865722656
aI578
aS'kernel = 1 degree'
p691
aa(lp692
g4
(g8
S'\xca\x9coB\x15\xe8\xea?'
p693
tp694
Rp695
ag4
(g8
S'\xbc\x1f9\xcd\xd7\xea\xe9?'
p696
tp697
Rp698
aF0.03698897361755371
aI578
aS'kernel = 1 degree'
p699
ag4
(g8
S'\xbf(\x92\xfbd\xce\xe7?'
p700
tp701
Rp702
ag4
(g8
S'q\x1c\xc7q\x1c\xc7\xe7?'
p703
tp704
Rp705
aF0.0324709415435791
aI578
aS'kernel = 1 degree'
p706
ag4
(g8
S'\x1b\xa2)\xb18\xc0\xe7?'
p707
tp708
Rp709
ag4
(g8
S'\x06t\xe9/Z@\xe7?'
p710
tp711
Rp712
aF0.02823185920715332
aI578
aS'kernel = 1 degree'
p713
aa(lp714
g4
(g8
S'RC4%\x16\x07\xe8?'
p715
tp716
Rp717
ag4
(g8
S'ju\xa7\xd5\x9dV\xe7?'
p718
tp719
Rp720
aF0.03678393363952637
aI578
aS'kernel = 1 degree'
p721
ag4
(g8
S'\xcd\xf9&T\x81\xae\xeb?'
p722
tp723
Rp724
ag4
(g8
S'\x0b\x9d\xc1\n\x9d\xc1\xea?'
p725
tp726
Rp727
aF0.03469491004943848
aI578
aS'kernel = 1 degree'
p728
ag4
(g8
S'\xfc\x83\x0b\x93\x1a\xa2\xe9?'
p729
tp730
Rp731
ag4
(g8
S'm4\xa6\xc2\x89\xfb\xe7?'
p732
tp733
Rp734
aF0.02895498275756836
aI578
aS'kernel = 1 degree'
p735
aa(lp736
g4
(g8
S'\xdee\xedt\xfc\x83\xeb?'
p737
tp738
Rp739
ag4
(g8
S'K\x95\xcb\xcf\xecB\xeb?'
p740
tp741
Rp742
aF0.03657412528991699
aI578
aS'kernel = 1 degree'
p743
ag4
(g8
S'\x97\xb5\xd3\xf1\x0f.\xec?'
p744
tp745
Rp746
ag4
(g8
S'\x83\x89\xfeNV\xcb\xeb?'
p747
tp748
Rp749
aF0.03378701210021973
aI578
aS'kernel = 1 degree'
p750
ag4
(g8
S'\x92\xfbd\xce7\xa1\xea?'
p751
tp752
Rp753
ag4
(g8
S'\xce\x07\xb03n\x16\xea?'
p754
tp755
Rp756
aF0.03141212463378906
aI578
aS'kernel = 1 degree'
p757
aa(lp758
g4
(g8
S':\xdf\x84*\xd0u\xeb?'
p759
tp760
Rp761
ag4
(g8
S'\xa2\xf2\xb4\xd0\x1d\xbb\xea?'
p762
tp763
Rp764
aF0.03668403625488281
aI578
aS'kernel = 1 degree'
p765
ag4
(g8
S'`\x14\xc9}2\xe7\xeb?'
p766
tp767
Rp768
ag4
(g8
S'\xf7\xca[\x12jH\xeb?'
p769
tp770
Rp771
aF0.03267216682434082
aI578
aS'kernel = 1 degree'
p772
ag4
(g8
S'\x16\x07\xf8\xe8\xd9\xca\xeb?'
p773
tp774
Rp775
ag4
(g8
S'\xb9E@\x0fV\xd3\xea?'
p776
tp777
Rp778
aF0.02909111976623535
aI578
aS'kernel = 1 degree'
p779
aa(lp780
g4
(g8
S'\xb80\xa9!\x9a\x12\xeb?'
p781
tp782
Rp783
ag4
(g8
S'f\xe8\x99\xdc\xe6J\xea?'
p784
tp785
Rp786
aF0.0360870361328125
aI578
aS'kernel = 1 degree'
p787
ag4
(g8
S'o#\xd8\x8cA\xf6\xea?'
p788
tp789
Rp790
ag4
(g8
S'\xbdcj`\xef\x98\xea?'
p791
tp792
Rp793
aF0.03246617317199707
aI578
aS'kernel = 1 degree'
p794
ag4
(g8
S'\x02>z\xb6\xf2.\xeb?'
p795
tp796
Rp797
ag4
(g8
S'+\xa9\xad\xa4\xb6\x92\xea?'
p798
tp799
Rp800
aF0.02886795997619629
aI578
aS'kernel = 1 degree'
p801
aa(lp802
g4
(g8
S'\xd9\xab~Q$\xf7\xe9?'
p803
tp804
Rp805
ag4
(g8
S'n\xb6\xdb\xc2(:\xe9?'
p806
tp807
Rp808
aF0.03611493110656738
aI578
aS'kernel = 1 degree'
p809
ag4
(g8
S'\x95X\x1c\xe0\xa3g\xeb?'
p810
tp811
Rp812
ag4
(g8
S')\xad\xa5\xb4\x96\xd2\xea?'
p813
tp814
Rp815
aF0.03129696846008301
aI578
aS'kernel = 1 degree'
p816
ag4
(g8
S'\xa4g+\xef\xb2v\xea?'
p817
tp818
Rp819
ag4
(g8
S'\x15\x95H\xbe\xa6\xde\xe9?'
p820
tp821
Rp822
aF0.0284268856048584
aI578
aS'kernel = 1 degree'
p823
aa(lp824
g4
(g8
S'z\xb6\xf2.k\xa7\xe3?'
p825
tp826
Rp827
ag4
(g8
S'~1"Tmu\xe3?'
p828
tp829
Rp830
aF0.03644919395446777
aI578
aS'kernel = 1 degree'
p831
ag4
(g8
S'\x80\x8f\x9e\xad\xbc\xcb\xea?'
p832
tp833
Rp834
ag4
(g8
S'\x93\x9e\x11\xc92\xe9\xe9?'
p835
tp836
Rp837
aF0.032354116439819336
aI578
aS'kernel = 1 degree'
p838
ag4
(g8
S'iiiiii\xe9?'
p839
tp840
Rp841
ag4
(g8
S'\x85\xefsY\xf8>\xe7?'
p842
tp843
Rp844
aF0.0294039249420166
aI578
aS'kernel = 1 degree'
p845
aa(lp846
g4
(g8
S'\x90\x9e\xad\xbc\xcb\xda\xe9?'
p847
tp848
Rp849
ag4
(g8
S'\xcc\x92r@d\xb8\xe7?'
p850
tp851
Rp852
aF0.03554797172546387
aI578
aS'kernel = 1 degree'
p853
ag4
(g8
S'\xddF\xb0\x19\x83\xec\xe5?'
p854
tp855
Rp856
ag4
(g8
S'\x82V_*h\xf5\xe5?'
p857
tp858
Rp859
aF0.03273296356201172
aI578
aS'kernel = 1 degree'
p860
ag4
(g8
S'%\x16\x07\xf8\xe8\xd9\xea?'
p861
tp862
Rp863
ag4
(g8
S'\x02\xf4\x84\xc3[\xf0\xe9?'
p864
tp865
Rp866
aF0.041136980056762695
aI578
aS'kernel = 1 degree'
p867
aa(lp868
g4
(g8
S'\x9f\xad\xbc\xcb\xda\xe9\xe8?'
p869
tp870
Rp871
ag4
(g8
S'\x1d1\xed\x89\x0c\xa4\xe7?'
p872
tp873
Rp874
aF0.034913063049316406
aI578
aS'kernel = 1 degree'
p875
ag4
(g8
S'\xca\x9coB\x15\xe8\xea?'
p876
tp877
Rp878
ag4
(g8
S';:::::\xea?'
p879
tp880
Rp881
aF0.03227090835571289
aI578
aS'kernel = 1 degree'
p882
ag4
(g8
S'\x11M\x89\xc5\x01>\xea?'
p883
tp884
Rp885
ag4
(g8
S'<\xb9\xc5\x93[<\xe9?'
p886
tp887
Rp888
aF0.028653860092163086
aI578
aS'kernel = 1 degree'
p889
aa(lp890
g4
(g8
S'\x90\x9e\xad\xbc\xcb\xda\xe9?'
p891
tp892
Rp893
ag4
(g8
S'\xcc\x92r@d\xb8\xe7?'
p894
tp895
Rp896
aF0.0494539737701416
aI578
aS'kernel = 1 degree'
p897
ag4
(g8
S'\x9f\xad\xbc\xcb\xda\xe9\xe8?'
p898
tp899
Rp900
ag4
(g8
S'\x01+\x87\x16\xd9\xce\xe7?'
p901
tp902
Rp903
aF0.046319007873535156
aI578
aS'kernel = 1 degree'
p904
ag4
(g8
S'\x11M\x89\xc5\x01>\xea?'
p905
tp906
Rp907
ag4
(g8
S'\xf2\xd2Mb\x10X\xe9?'
p908
tp909
Rp910
aF0.04229307174682617
aI578
aS'kernel = 1 degree'
p911
aa(lp912
g4
(g8
S'4%\x16\x07\xf8\xe8\xe9?'
p913
tp914
Rp915
ag4
(g8
S'\xa8\x87z\xa8\x87z\xe8?'
p916
tp917
Rp918
aF0.03594493865966797
aI578
aS'kernel = 1 degree'
p919
ag4
(g8
S'l\xc6 {\xd5/\xea?'
p920
tp921
Rp922
ag4
(g8
S'`4\xdf\xa8U\x93\xe9?'
p923
tp924
Rp925
aF0.03251314163208008
aI578
aS'kernel = 1 degree'
p926
ag4
(g8
S'\xdc\x086c\x90\xbd\xea?'
p927
tp928
Rp929
ag4
(g8
S'f\xab\xae\xc0\xa3\x84\xe9?'
p930
tp931
Rp932
aF0.02784109115600586
aI578
aS'kernel = 1 degree'
p933
aa(lp934
g4
(g8
S'\xd1\x94X\x1c\xe0\xa3\xe7?'
p935
tp936
Rp937
ag4
(g8
S'%\x18J\x82\xa1$\xe8?'
p938
tp939
Rp940
aF0.0346829891204834
aI578
aS'kernel = 1 degree'
p941
ag4
(g8
S'\xeb\x17Er\x9f\xcc\xe9?'
p942
tp943
Rp944
ag4
(g8
S';\x1e\x8f\xc7\xe3\xf1\xe8?'
p945
tp946
Rp947
aF0.03146505355834961
aI578
aS'kernel = 1 degree'
p948
ag4
(g8
S'%\x16\x07\xf8\xe8\xd9\xea?'
p949
tp950
Rp951
ag4
(g8
S'\xcb:\xae\x86|\xc9\xe9?'
p952
tp953
Rp954
aF0.04143977165222168
aI578
aS'kernel = 1 degree'
p955
aa(lp956
g4
(g8
S'X\xfd\xa2H\xee\x93\xe9?'
p957
tp958
Rp959
ag4
(g8
S'.-----\xe9?'
p960
tp961
Rp962
aF0.048970937728881836
aI578
aS'kernel = 1 degree'
p963
ag4
(g8
S'\x95X\x1c\xe0\xa3g\xeb?'
p964
tp965
Rp966
ag4
(g8
S'I\x98\x06\xdf\xa4\xc7\xe9?'
p967
tp968
Rp969
aF0.0333859920501709
aI578
aS'kernel = 1 degree'
p970
ag4
(g8
S'ZZZZZZ\xea?'
p971
tp972
Rp973
ag4
(g8
S'HS\xe7\xd7\x1er\xe9?'
p974
tp975
Rp976
aF0.028742074966430664
aI578
aS'kernel = 1 degree'
p977
aa(lp978
g4
(g8
S'\xf4l\xe5]\xd6N\xe7?'
p979
tp980
Rp981
ag4
(g8
S'\xfbg\xd6CKH\xe6?'
p982
tp983
Rp984
aF0.036216020584106445
aI578
aS'kernel = 1 degree'
p985
ag4
(g8
S'{\xd5/\x8a\xe4>\xe9?'
p986
tp987
Rp988
ag4
(g8
S'\xd2\xd2\xd2\xd2\xd2\xd2\xe8?'
p989
tp990
Rp991
aF0.032592058181762695
aI578
aS'kernel = 1 degree'
p992
ag4
(g8
S'\xf0\xd1\xb3\x95wY\xeb?'
p993
tp994
Rp995
ag4
(g8
S' \xb5\x910\x10\xb0\xea?'
p996
tp997
Rp998
aF0.02783799171447754
aI578
aS'kernel = 1 degree'
p999
aa(lp1000
g4
(g8
S'\xdee\xedt\xfc\x83\xeb?'
p1001
tp1002
Rp1003
ag4
(g8
S'K\x95\xcb\xcf\xecB\xeb?'
p1004
tp1005
Rp1006
aF0.03638195991516113
aI578
aS'kernel = 1 degree'
p1007
ag4
(g8
S'<<<<<<\xec?'
p1008
tp1009
Rp1010
ag4
(g8
S'\xf2\x86\xbc!o\xc8\xeb?'
p1011
tp1012
Rp1013
aF0.03212094306945801
aI578
aS'kernel = 1 degree'
p1014
ag4
(g8
S'\x95X\x1c\xe0\xa3g\xeb?'
p1015
tp1016
Rp1017
ag4
(g8
S'*\xad\xa5\xb4\x96\xd2\xea?'
p1018
tp1019
Rp1020
aF0.028053998947143555
aI578
aS'kernel = 1 degree'
p1021
aa(lp1022
g4
(g8
S'I\xee\x939\xdf\x84\xea?'
p1023
tp1024
Rp1025
ag4
(g8
S'1 \x8a\x0e\xf4\x92\xe9?'
p1026
tp1027
Rp1028
aF0.03674912452697754
aI578
aS'kernel = 1 degree'
p1029
ag4
(g8
S'\x83\xecU\xbf(\x92\xeb?'
p1030
tp1031
Rp1032
ag4
(g8
S'\xb1>4\xd6\x87\xc6\xea?'
p1033
tp1034
Rp1035
aF0.03153514862060547
aI578
aS'kernel = 1 degree'
p1036
ag4
(g8
S'\x95X\x1c\xe0\xa3g\xeb?'
p1037
tp1038
Rp1039
ag4
(g8
S'\x9c\xc3\xaeg\x82t\xea?'
p1040
tp1041
Rp1042
aF0.04132413864135742
aI578
aS'kernel = 1 degree'
p1043
aa(lp1044
g4
(g8
S'g\x0c\xb2W\xfd\xa2\xe8?'
p1045
tp1046
Rp1047
ag4
(g8
S'\xe6zW\x81\xdb\x13\xe7?'
p1048
tp1049
Rp1050
aF0.03507208824157715
aI578
aS'kernel = 1 degree'
p1051
ag4
(g8
S'\xfc\x83\x0b\x93\x1a\xa2\xe9?'
p1052
tp1053
Rp1054
ag4
(g8
S':\x95\x9a\x9e\xe1\x93\xe9?'
p1055
tp1056
Rp1057
aF0.032089948654174805
aI578
aS'kernel = 1 degree'
p1058
ag4
(g8
S'\xf0\xd1\xb3\x95wY\xeb?'
p1059
tp1060
Rp1061
ag4
(g8
S'\x95RJ)\xa5\x94\xea?'
p1062
tp1063
Rp1064
aF0.027817964553833008
aI578
aS'kernel = 1 degree'
p1065
aa(lp1066
g4
(g8
S'\xca\x9coB\x15\xe8\xea?'
p1067
tp1068
Rp1069
ag4
(g8
S'\xbc\x1f9\xcd\xd7\xea\xe9?'
p1070
tp1071
Rp1072
aF0.03728485107421875
aI578
aS'kernel = 1 degree'
p1073
ag4
(g8
S'%\x16\x07\xf8\xe8\xd9\xea?'
p1074
tp1075
Rp1076
ag4
(g8
S'\x0f\xd6,1>e\xea?'
p1077
tp1078
Rp1079
aF0.03395390510559082
aI578
aS'kernel = 1 degree'
p1080
ag4
(g8
S'\xb80\xa9!\x9a\x12\xeb?'
p1081
tp1082
Rp1083
ag4
(g8
S'o\x92:\xe4\xf4a\xea?'
p1084
tp1085
Rp1086
aF0.028404951095581055
aI578
aS'kernel = 1 degree'
p1087
aa(lp1088
g4
(g8
S'\xae\xbc\xcb\xda\xe9\xf8\xe7?'
p1089
tp1090
Rp1091
ag4
(g8
S'X\xa13X\xa13\xe8?'
p1092
tp1093
Rp1094
aF0.03577113151550293
aI578
aS'kernel = 1 degree'
p1095
ag4
(g8
S'\xd4\xf1\x0f.Lj\xe8?'
p1096
tp1097
Rp1098
ag4
(g8
S'=\t\xa9_0\xb1\xe6?'
p1099
tp1100
Rp1101
aF0.032872915267944336
aI578
aS'kernel = 1 degree'
p1102
ag4
(g8
S'#\xb9O\xe6|\x13\xea?'
p1103
tp1104
Rp1105
ag4
(g8
S'\xca\x94)S\xa6L\xe9?'
p1106
tp1107
Rp1108
aF0.027956008911132812
aI578
aS'kernel = 1 degree'
p1109
aas.