(dp0
S'german'
p1
(lp2
(lp3
cnumpy.core.multiarray
scalar
p4
(cnumpy
dtype
p5
(S'f8'
p6
I0
I1
tp7
Rp8
(I3
S'<'
p9
NNNI-1
I-1
I0
tp10
bS'\x12\x83\xc0\xca\xa1E\xd6?'
p11
tp12
Rp13
ag4
(g8
S'\x12\x1a\x0c\xa1\xc1\x10\xda?'
p14
tp15
Rp16
aF0.22142410278320312
aI250
aS'kernel = 1 degree'
p17
ag4
(g8
S'\n\xd7\xa3p=\n\xe7?'
p18
tp19
Rp20
ag4
(g8
S'\x1d\xc7q\x1c\xc7q\xdc?'
p21
tp22
Rp23
aF0.19324588775634766
aI250
aS'kernel = 1 degree'
p24
ag4
(g8
S'\xc3\xf5(\\\x8f\xc2\xe5?'
p25
tp26
Rp27
ag4
(g8
S'm\xde\xa7\xb8d\x08\xd6?'
p28
tp29
Rp30
aF0.17195701599121094
aI250
aS'kernel = 1 degree'
p31
aa(lp32
g4
(g8
S'R\xb8\x1e\x85\xebQ\xd8?'
p33
tp34
Rp35
ag4
(g8
S'\x1f\x8a\xc1\x8c \xe9\xdd?'
p36
tp37
Rp38
aF0.19620800018310547
aI250
aS'kernel = 1 degree'
p39
ag4
(g8
S'o\x12\x83\xc0\xca\xa1\xe5?'
p40
tp41
Rp42
ag4
(g8
S'\xb4C\xe0\xc62(\xd5?'
p43
tp44
Rp45
aF0.1791849136352539
aI250
aS'kernel = 1 degree'
p46
ag4
(g8
S'\x1f\x85\xebQ\xb8\x1e\xe5?'
p47
tp48
Rp49
ag4
(g8
S'\xc6\x93[<\xb9\xc5\xd3?'
p50
tp51
Rp52
aF0.14258313179016113
aI250
aS'kernel = 0 degree'
p53
aa(lp54
g4
(g8
S'\x19\x04V\x0e-\xb2\xdd?'
p55
tp56
Rp57
ag4
(g8
S'\xbd\x84\xf6\x12\xdaK\xd8?'
p58
tp59
Rp60
aF0.1408088207244873
aI250
aS'kernel = 1 degree'
p61
ag4
(g8
S'w\xbe\x9f\x1a/\xdd\xe4?'
p62
tp63
Rp64
ag4
(g8
S'+b\xa9\x88\xa5"\xd6?'
p65
tp66
Rp67
aF0.16638803482055664
aI250
aS'kernel = 1 degree'
p68
ag4
(g8
S'j\xbct\x93\x18\x04\xe6?'
p69
tp70
Rp71
ag4
(g8
S'\x00\x00\x00\x00\x00\x00\xd9?'
p72
tp73
Rp74
aF0.12705588340759277
aI250
aS'kernel = 1 degree'
p75
aa(lp76
g4
(g8
S'\xbe\x9f\x1a/\xdd$\xe6?'
p77
tp78
Rp79
ag4
(g8
S's\xc6\x9c1g\xcc\xd9?'
p80
tp81
Rp82
aF0.13345003128051758
aI250
aS'kernel = 1 degree'
p83
ag4
(g8
S'\xb2\x9d\xef\xa7\xc6K\xe7?'
p84
tp85
Rp86
ag4
(g8
S'^\xe8\x85^\xe8\x85\xde?'
p87
tp88
Rp89
aF0.15326595306396484
aI250
aS'kernel = 1 degree'
p90
ag4
(g8
S'+\x87\x16\xd9\xce\xf7\xe3?'
p91
tp92
Rp93
ag4
(g8
S'Q\xbb\x12\xb5+Q\xdb?'
p94
tp95
Rp96
aF0.12729096412658691
aI250
aS'kernel = 1 degree'
p97
aa(lp98
g4
(g8
S'\x02+\x87\x16\xd9\xce\xe7?'
p99
tp100
Rp101
ag4
(g8
S'UUUUUU\xd5?'
p102
tp103
Rp104
aF0.14077401161193848
aI250
aS'kernel = 1 degree'
p105
ag4
(g8
S'\xb6\xf3\xfd\xd4x\xe9\xe6?'
p106
tp107
Rp108
ag4
(g8
S'\r\x1b\xe9\xb0\x91\x0e\xdb?'
p109
tp110
Rp111
aF0.11656022071838379
aI250
aS'kernel = 1 degree'
p112
ag4
(g8
S'\n\xd7\xa3p=\n\xe7?'
p113
tp114
Rp115
ag4
(g8
S'/\xba\xe8\xa2\x8b.\xca?'
p116
tp117
Rp118
aF0.11313891410827637
aI250
aS'kernel = 0 degree'
p119
aa(lp120
g4
(g8
S'\xcb\xa1E\xb6\xf3\xfd\xe4?'
p121
tp122
Rp123
ag4
(g8
S'\x81u\xb4y\x9f\xe2\xd2?'
p124
tp125
Rp126
aF0.12443280220031738
aI250
aS'kernel = 1 degree'
p127
ag4
(g8
S'o\x12\x83\xc0\xca\xa1\xe5?'
p128
tp129
Rp130
ag4
(g8
S'\x0c\x07\xd1\xe3\xbbp\xd0?'
p131
tp132
Rp133
aF0.11644792556762695
aI250
aS'kernel = 1 degree'
p134
ag4
(g8
S'\x12\x83\xc0\xca\xa1E\xe6?'
p135
tp136
Rp137
ag4
(g8
S'i/\xa1\xbd\x84\xf6\xd2?'
p138
tp139
Rp140
aF0.12952303886413574
aI250
aS'kernel = 1 degree'
p141
aa(lp142
g4
(g8
S'\xbe\x9f\x1a/\xdd$\xe6?'
p143
tp144
Rp145
ag4
(g8
S'\x05\x16X`\x81\x05\xc6?'
p146
tp147
Rp148
aF0.11695122718811035
aI250
aS'kernel = 1 degree'
p149
ag4
(g8
S'/\xdd$\x06\x81\x95\xe3?'
p150
tp151
Rp152
ag4
(g8
S'\xfa{m\xc4\xba\xf4\xd8?'
p153
tp154
Rp155
aF0.13761401176452637
aI250
aS'kernel = 1 degree'
p156
ag4
(g8
S'{\x14\xaeG\xe1z\xe4?'
p157
tp158
Rp159
ag4
(g8
S'\x8c1\xc6\x18c\x8c\xd1?'
p160
tp161
Rp162
aF0.12440991401672363
aI250
aS'kernel = 1 degree'
p163
aa(lp164
g4
(g8
S'Zd;\xdfO\x8d\xd7?'
p165
tp166
Rp167
ag4
(g8
S'f\xdd`\x8a|\xd6\xdd?'
p168
tp169
Rp170
aF0.14671802520751953
aI250
aS'kernel = 1 degree'
p171
ag4
(g8
S'\x98n\x12\x83\xc0\xca\xe1?'
p172
tp173
Rp174
ag4
(g8
S'^\xe5\x99\xf8\xb8\xef\xd6?'
p175
tp176
Rp177
aF0.13452506065368652
aI250
aS'kernel = 1 degree'
p178
ag4
(g8
S'\x17\xd9\xce\xf7S\xe3\xe5?'
p179
tp180
Rp181
ag4
(g8
S'\xc5\xa8\xe1oS\x8c\xda?'
p182
tp183
Rp184
aF0.10652780532836914
aI250
aS'kernel = 0 degree'
p185
aa(lp186
g4
(g8
S'sh\x91\xed|?\xe5?'
p187
tp188
Rp189
ag4
(g8
S'\x82D+l\x0e$\xda?'
p190
tp191
Rp192
aF0.1429588794708252
aI250
aS'kernel = 1 degree'
p193
ag4
(g8
S'\x7fj\xbct\x93\x18\xe4?'
p194
tp195
Rp196
ag4
(g8
S'\t\xc6[\xd9\xe7\x90\xda?'
p197
tp198
Rp199
aF0.05644512176513672
aI250
aS'kernel = 1 degree'
p200
ag4
(g8
S'\xbaI\x0c\x02+\x87\xe6?'
p201
tp202
Rp203
ag4
(g8
S'\xbc\xd4\x93\xf1\xdb\xa5\xde?'
p204
tp205
Rp206
aF0.09924602508544922
aI250
aS'kernel = 0 degree'
p207
aa(lp208
g4
(g8
S'j\xbct\x93\x18\x04\xe6?'
p209
tp210
Rp211
ag4
(g8
S'\x1d\x1e\x1e\x1e\x1e\x1e\xce?'
p212
tp213
Rp214
aF0.1432039737701416
aI250
aS'kernel = 1 degree'
p215
ag4
(g8
S'j\xbct\x93\x18\x04\xe6?'
p216
tp217
Rp218
ag4
(g8
S'\x1d\x1e\x1e\x1e\x1e\x1e\xce?'
p219
tp220
Rp221
aF0.0730900764465332
aI250
aS'kernel = 1 degree'
p222
ag4
(g8
S'\x17\xd9\xce\xf7S\xe3\xe5?'
p223
tp224
Rp225
ag4
(g8
S'\xec9\x99\xbeJ\x18\xdb?'
p226
tp227
Rp228
aF0.05285382270812988
aI250
aS'kernel = 1 degree'
p229
aa(lp230
g4
(g8
S'b\x10X9\xb4\xc8\xe6?'
p231
tp232
Rp233
ag4
(g8
S'>4\xd6\x87\xc6\xfa\xd0?'
p234
tp235
Rp236
aF0.08407998085021973
aI250
aS'kernel = 1 degree'
p237
ag4
(g8
S'\xb6\xf3\xfd\xd4x\xe9\xe6?'
p238
tp239
Rp240
ag4
(g8
S'\xd7rp\xb3_\x88\xd5?'
p241
tp242
Rp243
aF0.05586099624633789
aI250
aS'kernel = 1 degree'
p244
ag4
(g8
S'\xb6\xf3\xfd\xd4x\xe9\xe6?'
p245
tp246
Rp247
ag4
(g8
S'i\xf7\xb0\xf5m\xc0\xe0?'
p248
tp249
Rp250
aF0.10530900955200195
aI250
aS'kernel = 1 degree'
p251
aa(lp252
g4
(g8
S'\xb6\xf3\xfd\xd4x\xe9\xe6?'
p253
tp254
Rp255
ag4
(g8
S'ogH\xcc\xdb\x19\xd2?'
p256
tp257
Rp258
aF0.07626485824584961
aI250
aS'kernel = 1 degree'
p259
ag4
(g8
S'V\x0e-\xb2\x9d\xef\xe7?'
p260
tp261
Rp262
ag4
(g8
S'%\xb0i?Y\x02\xdb?'
p263
tp264
Rp265
aF0.03376293182373047
aI250
aS'kernel = 0 degree'
p266
ag4
(g8
S'sh\x91\xed|?\xe5?'
p267
tp268
Rp269
ag4
(g8
S'\x00\x00\x00\x00\x00\x00\xd6?'
p270
tp271
Rp272
aF0.031373023986816406
aI250
aS'kernel = 1 degree'
p273
aa(lp274
g4
(g8
S'\xbe\x9f\x1a/\xdd$\xe6?'
p275
tp276
Rp277
ag4
(g8
S"Q\xc9yY\xc4'\xd0?"
p278
tp279
Rp280
aF0.06232285499572754
aI250
aS'kernel = 1 degree'
p281
ag4
(g8
S'\xbaI\x0c\x02+\x87\xe6?'
p282
tp283
Rp284
ag4
(g8
S'\xd6\x87\xc6\xfa\xd0X\xcf?'
p285
tp286
Rp287
aF0.05725693702697754
aI250
aS'kernel = 1 degree'
p288
ag4
(g8
S'\x7fj\xbct\x93\x18\xe4?'
p289
tp290
Rp291
ag4
(g8
S'\x94>\xe9\x93>\xe9\xd3?'
p292
tp293
Rp294
aF0.05236697196960449
aI250
aS'kernel = 1 degree'
p295
aa(lp296
g4
(g8
S'J\x0c\x02+\x87\x16\xd9?'
p297
tp298
Rp299
ag4
(g8
S'\xc6\x18c\x8c1\xc6\xd8?'
p300
tp301
Rp302
aF0.062146902084350586
aI250
aS'kernel = 1 degree'
p303
ag4
(g8
S'\x10X9\xb4\xc8v\xde?'
p304
tp305
Rp306
ag4
(g8
S':\xd3\xb8\x81Qg\xda?'
p307
tp308
Rp309
aF0.05965995788574219
aI250
aS'kernel = 1 degree'
p310
ag4
(g8
S'{\x14\xaeG\xe1z\xe4?'
p311
tp312
Rp313
ag4
(g8
S'\x00\x00\x00\x00\x00\x00\xd0?'
p314
tp315
Rp316
aF0.051889896392822266
aI250
aS'kernel = 1 degree'
p317
aa(lp318
g4
(g8
S'^\xbaI\x0c\x02+\xe7?'
p319
tp320
Rp321
ag4
(g8
S' \xef\xf1\x1e\xef\xf1\xce?'
p322
tp323
Rp324
aF0.06155204772949219
aI250
aS'kernel = 1 degree'
p325
ag4
(g8
S'/\xdd$\x06\x81\x95\xe3?'
p326
tp327
Rp328
ag4
(g8
S'Ls\x17\xfcU\x9c\xd0?'
p329
tp330
Rp331
aF0.05495595932006836
aI250
aS'kernel = 1 degree'
p332
ag4
(g8
S'b\x10X9\xb4\xc8\xe6?'
p333
tp334
Rp335
ag4
(g8
S'?4\xd6\x87\xc6\xfa\xd0?'
p336
tp337
Rp338
aF0.051413774490356445
aI250
aS'kernel = 0 degree'
p339
aa(lp340
g4
(g8
S'q=\n\xd7\xa3p\xdd?'
p341
tp342
Rp343
ag4
(g8
S'\x1b\xc7q\x1c\xc7q\xdc?'
p344
tp345
Rp346
aF0.06095004081726074
aI250
aS'kernel = 1 degree'
p347
ag4
(g8
S'j\xbct\x93\x18\x04\xe6?'
p348
tp349
Rp350
ag4
(g8
S'\xd0pR\xf7\xe5\xb1\xd5?'
p351
tp352
Rp353
aF0.05747413635253906
aI250
aS'kernel = 1 degree'
p354
ag4
(g8
S"'1\x08\xac\x1cZ\xe4?"
p355
tp356
Rp357
ag4
(g8
S'm\x1a\xd0\xa6\x01m\xda?'
p358
tp359
Rp360
aF0.031282901763916016
aI250
aS'kernel = 1 degree'
p361
aa(lp362
g4
(g8
S'\x02+\x87\x16\xd9\xce\xe7?'
p363
tp364
Rp365
ag4
(g8
S'UUUUUU\xd5?'
p366
tp367
Rp368
aF0.03720521926879883
aI250
aS'kernel = 1 degree'
p369
ag4
(g8
S'\xb6\xf3\xfd\xd4x\xe9\xe6?'
p370
tp371
Rp372
ag4
(g8
S'\x0e\x9a|\xd9\xa0\xc9\xd7?'
p373
tp374
Rp375
aF0.05600404739379883
aI250
aS'kernel = 1 degree'
p376
ag4
(g8
S'\xcf\xf7S\xe3\xa5\x9b\xe4?'
p377
tp378
Rp379
ag4
(g8
S'\xd2y\x8b!\x9d\xb7\xd8?'
p380
tp381
Rp382
aF0.05091404914855957
aI250
aS'kernel = 1 degree'
p383
aa(lp384
g4
(g8
S'\xb2\x9d\xef\xa7\xc6K\xe7?'
p385
tp386
Rp387
ag4
(g8
S'\xa0\xf4I\x9f\xf4I\xcf?'
p388
tp389
Rp390
aF0.05861616134643555
aI250
aS'kernel = 1 degree'
p391
ag4
(g8
S'\xb2\x9d\xef\xa7\xc6K\xe7?'
p392
tp393
Rp394
ag4
(g8
S'\nY\xc8B\x16\xb2\xd0?'
p395
tp396
Rp397
aF0.055737972259521484
aI250
aS'kernel = 0 degree'
p398
ag4
(g8
S'\x1b/\xdd$\x06\x81\xe5?'
p399
tp400
Rp401
ag4
(g8
S'\xae\xb5\xd6Zk\xad\xd5?'
p402
tp403
Rp404
aF0.030966997146606445
aI250
aS'kernel = 1 degree'
p405
aa(lp406
g4
(g8
S'\xa2E\xb6\xf3\xfd\xd4\xd8?'
p407
tp408
Rp409
ag4
(g8
S'b\xe8V\x1c\xfe\xdd\xdb?'
p410
tp411
Rp412
aF0.03632807731628418
aI250
aS'kernel = 1 degree'
p413
ag4
(g8
S'\xcf\xf7S\xe3\xa5\x9b\xe4?'
p414
tp415
Rp416
ag4
(g8
S'\xeb\\y@\xb2\xce\xd5?'
p417
tp418
Rp419
aF0.05555915832519531
aI250
aS'kernel = 1 degree'
p420
ag4
(g8
S'ffffff\xe6?'
p421
tp422
Rp423
ag4
(g8
S'#\xfa\x80\xea\xd8[\xdb?'
p424
tp425
Rp426
aF0.051735877990722656
aI250
aS'kernel = 1 degree'
p427
aa(lp428
g4
(g8
S'q=\n\xd7\xa3p\xdd?'
p429
tp430
Rp431
ag4
(g8
S'\x1b\xc7q\x1c\xc7q\xdc?'
p432
tp433
Rp434
aF0.06001996994018555
aI250
aS'kernel = 1 degree'
p435
ag4
(g8
S'\x17\xd9\xce\xf7S\xe3\xe5?'
p436
tp437
Rp438
ag4
(g8
S'qJ\xf3\xe2O$\xdc?'
p439
tp440
Rp441
aF0.03344392776489258
aI250
aS'kernel = 1 degree'
p442
ag4
(g8
S'\x1f\x85\xebQ\xb8\x1e\xe5?'
p443
tp444
Rp445
ag4
(g8
S'|\x14\xaeG\xe1z\xd4?'
p446
tp447
Rp448
aF0.05120396614074707
aI250
aS'kernel = 1 degree'
p449
aa(lp450
g4
(g8
S'\xf4\xfd\xd4x\xe9&\xe1?'
p451
tp452
Rp453
ag4
(g8
S'"5\xc1x+\xfb\xdc?'
p454
tp455
Rp456
aF0.06273007392883301
aI250
aS'kernel = 1 degree'
p457
ag4
(g8
S'\x17\xd9\xce\xf7S\xe3\xe5?'
p458
tp459
Rp460
ag4
(g8
S'\x95L\xc9\x94L\xc9\xd4?'
p461
tp462
Rp463
aF0.03374886512756348
aI250
aS'kernel = 1 degree'
p464
ag4
(g8
S'sh\x91\xed|?\xe5?'
p465
tp466
Rp467
ag4
(g8
S'333333\xd3?'
p468
tp469
Rp470
aF0.031061172485351562
aI250
aS'kernel = 0 degree'
p471
aa(lp472
g4
(g8
S'\x1f\x85\xebQ\xb8\x1e\xe5?'
p473
tp474
Rp475
ag4
(g8
S'\x92$I\x92$I\xd2?'
p476
tp477
Rp478
aF0.06414794921875
aI250
aS'kernel = 1 degree'
p479
ag4
(g8
S'#\xdb\xf9~j\xbc\xe4?'
p480
tp481
Rp482
ag4
(g8
S'FX\xeei\x84\xe5\xce?'
p483
tp484
Rp485
aF0.05574202537536621
aI250
aS'kernel = 1 degree'
p486
ag4
(g8
S'\xb6\xf3\xfd\xd4x\xe9\xe6?'
p487
tp488
Rp489
ag4
(g8
S'\x0e\x9a|\xd9\xa0\xc9\xd7?'
p490
tp491
Rp492
aF0.031183958053588867
aI250
aS'kernel = 0 degree'
p493
aa(lp494
g4
(g8
S'\xbe\x9f\x1a/\xdd$\xe6?'
p495
tp496
Rp497
ag4
(g8
S'\x05\x16X`\x81\x05\xc6?'
p498
tp499
Rp500
aF0.06193089485168457
aI250
aS'kernel = 1 degree'
p501
ag4
(g8
S'^\xbaI\x0c\x02+\xe7?'
p502
tp503
Rp504
ag4
(g8
S'\x9b\x99\x99\x99\x99\x99\xd9?'
p505
tp506
Rp507
aF0.056333065032958984
aI250
aS'kernel = 0 degree'
p508
ag4
(g8
S'\xb6\xf3\xfd\xd4x\xe9\xe6?'
p509
tp510
Rp511
ag4
(g8
S's\xe5\x01\xc9:W\xde?'
p512
tp513
Rp514
aF0.05079388618469238
aI250
aS'kernel = 1 degree'
p515
aa(lp516
g4
(g8
S'\xbe\x9f\x1a/\xdd$\xe6?'
p517
tp518
Rp519
ag4
(g8
S's\xc6\x9c1g\xcc\xd9?'
p520
tp521
Rp522
aF0.06076788902282715
aI250
aS'kernel = 1 degree'
p523
ag4
(g8
S'\xbaI\x0c\x02+\x87\xe6?'
p524
tp525
Rp526
ag4
(g8
S'\xca\xc0\xd3\xad\xf9a\xe1?'
p527
tp528
Rp529
aF0.05509614944458008
aI250
aS'kernel = 1 degree'
p530
ag4
(g8
S'\xc7K7\x89A`\xe5?'
p531
tp532
Rp533
ag4
(g8
S'\xd0\x14\x02M!\xd0\xd4?'
p534
tp535
Rp536
aF0.03128409385681152
aI250
aS'kernel = 1 degree'
p537
aa(lp538
g4
(g8
S'\xfa~j\xbct\x93\xe8?'
p539
tp540
Rp541
ag4
(g8
S'!5\xc1x+\xfb\xdc?'
p542
tp543
Rp544
aF0.037483930587768555
aI250
aS'kernel = 1 degree'
p545
ag4
(g8
S'\x83\xc0\xca\xa1E\xb6\xe3?'
p546
tp547
Rp548
ag4
(g8
S'\x89\xda\x95\xa8]\x89\xda?'
p549
tp550
Rp551
aF0.05984210968017578
aI250
aS'kernel = 1 degree'
p552
ag4
(g8
S'\xcb\xa1E\xb6\xf3\xfd\xe4?'
p553
tp554
Rp555
ag4
(g8
S'O\x1b\xe8\xb4\x81N\xdb?'
p556
tp557
Rp558
aF0.05258607864379883
aI250
aS'kernel = 1 degree'
p559
aa(lp560
g4
(g8
S'1\x08\xac\x1cZd\xdb?'
p561
tp562
Rp563
ag4
(g8
S'\x8aJ$_S\xef\xdc?'
p564
tp565
Rp566
aF0.037199974060058594
aI250
aS'kernel = 1 degree'
p567
ag4
(g8
S'\xc3\xf5(\\\x8f\xc2\xe5?'
p568
tp569
Rp570
ag4
(g8
S'VUUUUU\xc5?'
p571
tp572
Rp573
aF0.06248593330383301
aI250
aS'kernel = 1 degree'
p574
ag4
(g8
S'\xc7K7\x89A`\xe5?'
p575
tp576
Rp577
ag4
(g8
S'\xd5\xb1\xb76Ls\xd7?'
p578
tp579
Rp580
aF0.0518488883972168
aI250
aS'kernel = 0 degree'
p581
aa(lp582
g4
(g8
S'\x12\x83\xc0\xca\xa1E\xe6?'
p583
tp584
Rp585
ag4
(g8
S'B\xc3I\xdd\x97\xc7\xd6?'
p586
tp587
Rp588
aF0.059461116790771484
aI250
aS'kernel = 1 degree'
p589
ag4
(g8
S'\x00\x00\x00\x00\x00\x00\xe0?'
p590
tp591
Rp592
ag4
(g8
S'\x87\xb7\x19\xdefx\xdb?'
p593
tp594
Rp595
aF0.056056976318359375
aI250
aS'kernel = 1 degree'
p596
ag4
(g8
S'\xcf\xf7S\xe3\xa5\x9b\xe4?'
p597
tp598
Rp599
ag4
(g8
S'S\x90\xfcy\x95\xc5\xd9?'
p600
tp601
Rp602
aF0.05142712593078613
aI250
aS'kernel = 1 degree'
p603
aa(lp604
g4
(g8
S'\xc3\xf5(\\\x8f\xc2\xe5?'
p605
tp606
Rp607
ag4
(g8
S'\xe1\xe5\x14\xbc\x9c\x82\xc7?'
p608
tp609
Rp610
aF0.06205010414123535
aI250
aS'kernel = 1 degree'
p611
ag4
(g8
S'\x8bl\xe7\xfb\xa9\xf1\xe2?'
p612
tp613
Rp614
ag4
(g8
S'\xaa\xf3k\x0f\xb9\xac\xd8?'
p615
tp616
Rp617
aF0.037446022033691406
aI250
aS'kernel = 1 degree'
p618
ag4
(g8
S'\xcb\xa1E\xb6\xf3\xfd\xe4?'
p619
tp620
Rp621
ag4
(g8
S'""""""\xd2?'
p622
tp623
Rp624
aF0.05097198486328125
aI250
aS'kernel = 1 degree'
p625
aa(lp626
g4
(g8
S'\x12\x83\xc0\xca\xa1E\xe6?'
p627
tp628
Rp629
ag4
(g8
S'\xc8S\x82<%\xc8\xd3?'
p630
tp631
Rp632
aF0.03811287879943848
aI250
aS'kernel = 1 degree'
p633
ag4
(g8
S'sh\x91\xed|?\xe5?'
p634
tp635
Rp636
ag4
(g8
S'\x00\x00\x00\x00\x00\x00\xd6?'
p637
tp638
Rp639
aF0.033905029296875
aI250
aS'kernel = 1 degree'
p640
ag4
(g8
S'#\xdb\xf9~j\xbc\xe4?'
p641
tp642
Rp643
ag4
(g8
S':\x8e\xe38\x8e\xe3\xd8?'
p644
tp645
Rp646
aF0.05160188674926758
aI250
aS'kernel = 1 degree'
p647
aa(lp648
g4
(g8
S'B`\xe5\xd0"\xdb\xd9?'
p649
tp650
Rp651
ag4
(g8
S'\xabo\x92\xf7\xd7\xc1\xd8?'
p652
tp653
Rp654
aF0.03670811653137207
aI250
aS'kernel = 1 degree'
p655
ag4
(g8
S'\xfc\xa9\xf1\xd2Mb\xe0?'
p656
tp657
Rp658
ag4
(g8
S'\xf6(\\\x8f\xc2\xf5\xd8?'
p659
tp660
Rp661
aF0.05471205711364746
aI250
aS'kernel = 1 degree'
p662
ag4
(g8
S'\x1f\x85\xebQ\xb8\x1e\xe5?'
p663
tp664
Rp665
ag4
(g8
S'\x91qA\xc6\x05\x19\xd7?'
p666
tp667
Rp668
aF0.030483007431030273
aI250
aS'kernel = 1 degree'
p669
aa(lp670
g4
(g8
S'\xbe\x9f\x1a/\xdd$\xe6?'
p671
tp672
Rp673
ag4
(g8
S'\x0b\x84\x91v\xac@\xc8?'
p674
tp675
Rp676
aF0.0377199649810791
aI250
aS'kernel = 1 degree'
p677
ag4
(g8
S'\xc7K7\x89A`\xe5?'
p678
tp679
Rp680
ag4
(g8
S'\x93)\x99\x92)\x99\xd2?'
p681
tp682
Rp683
aF0.05628800392150879
aI250
aS'kernel = 1 degree'
p684
ag4
(g8
S'j\xbct\x93\x18\x04\xe6?'
p685
tp686
Rp687
ag4
(g8
S'\x12\x11\x11\x11\x11\x11\xc1?'
p688
tp689
Rp690
aF0.051493167877197266
aI250
aS'kernel = 0 degree'
p691
aa(lp692
g4
(g8
S'\xb2\x9d\xef\xa7\xc6K\xe7?'
p693
tp694
Rp695
ag4
(g8
S'\xaa\xaa\xaa\xaa\xaa\xaa\xd2?'
p696
tp697
Rp698
aF0.060508012771606445
aI250
aS'kernel = 1 degree'
p699
ag4
(g8
S'\xcf\xf7S\xe3\xa5\x9b\xe4?'
p700
tp701
Rp702
ag4
(g8
S'\xc4R\x11KE,\xd5?'
p703
tp704
Rp705
aF0.055564165115356445
aI250
aS'kernel = 1 degree'
p706
ag4
(g8
S'\x1f\x85\xebQ\xb8\x1e\xe5?'
p707
tp708
Rp709
ag4
(g8
S'P\xed9\x99\xbeJ\xd8?'
p710
tp711
Rp712
aF0.05358314514160156
aI250
aS'kernel = 1 degree'
p713
aa(lp714
g4
(g8
S'\xbe\x9f\x1a/\xdd$\xe6?'
p715
tp716
Rp717
ag4
(g8
S'\x05\x16X`\x81\x05\xc6?'
p718
tp719
Rp720
aF0.05997514724731445
aI250
aS'kernel = 1 degree'
p721
ag4
(g8
S'\x0e-\xb2\x9d\xef\xa7\xe6?'
p722
tp723
Rp724
ag4
(g8
S's^\x16\xf1\t\xa4\xd2?'
p725
tp726
Rp727
aF0.033850908279418945
aI250
aS'kernel = 0 degree'
p728
ag4
(g8
S'\x17\xd9\xce\xf7S\xe3\xe5?'
p729
tp730
Rp731
ag4
(g8
S'A\xd1V\x83\xe7\x08\xd4?'
p732
tp733
Rp734
aF0.0508420467376709
aI250
aS'kernel = 0 degree'
p735
aa(lp736
g4
(g8
S'\xbe\x9f\x1a/\xdd$\xe6?'
p737
tp738
Rp739
ag4
(g8
S'\x05\x16X`\x81\x05\xc6?'
p740
tp741
Rp742
aF0.06093311309814453
aI250
aS'kernel = 1 degree'
p743
ag4
(g8
S'\x0e-\xb2\x9d\xef\xa7\xe6?'
p744
tp745
Rp746
ag4
(g8
S'\xe3&\xcc\xefjq\xb3?'
p747
tp748
Rp749
aF0.05607414245605469
aI250
aS'kernel = 0 degree'
p750
ag4
(g8
S'\xdb\xf9~j\xbct\xe3?'
p751
tp752
Rp753
ag4
(g8
S'\xcak(\xaf\xa1\xbc\xd6?'
p754
tp755
Rp756
aF0.05002903938293457
aI250
aS'kernel = 1 degree'
p757
aa(lp758
g4
(g8
S'\xbe\x9f\x1a/\xdd$\xe6?'
p759
tp760
Rp761
ag4
(g8
S'\x05\x16X`\x81\x05\xc6?'
p762
tp763
Rp764
aF0.06035494804382324
aI250
aS'kernel = 1 degree'
p765
ag4
(g8
S'\x0e-\xb2\x9d\xef\xa7\xe6?'
p766
tp767
Rp768
ag4
(g8
S'\xe3&\xcc\xefjq\xb3?'
p769
tp770
Rp771
aF0.03380703926086426
aI250
aS'kernel = 0 degree'
p772
ag4
(g8
S'\xc3\xf5(\\\x8f\xc2\xe5?'
p773
tp774
Rp775
ag4
(g8
S'{\t\xed%\xb4\x97\xd0?'
p776
tp777
Rp778
aF0.051171064376831055
aI250
aS'kernel = 1 degree'
p779
aa(lp780
g4
(g8
S'\xb0rh\x91\xed|\xdf?'
p781
tp782
Rp783
ag4
(g8
S'R\xed\xe8L\xaa\x1d\xdd?'
p784
tp785
Rp786
aF0.06054401397705078
aI250
aS'kernel = 1 degree'
p787
ag4
(g8
S'\xc7K7\x89A`\xe5?'
p788
tp789
Rp790
ag4
(g8
S'\x84\xe8\xf1]8\x88\xce?'
p791
tp792
Rp793
aF0.05672788619995117
aI250
aS'kernel = 1 degree'
p794
ag4
(g8
S'\x7fj\xbct\x93\x18\xe4?'
p795
tp796
Rp797
ag4
(g8
S'\x80\xdc\xba\xbc\x03\x8e\xd4?'
p798
tp799
Rp800
aF0.0516200065612793
aI250
aS'kernel = 1 degree'
p801
aa(lp802
g4
(g8
S'j\xbct\x93\x18\x04\xd6?'
p803
tp804
Rp805
ag4
(g8
S':\xa8\x83:\xa8\x83\xda?'
p806
tp807
Rp808
aF0.06097292900085449
aI250
aS'kernel = 1 degree'
p809
ag4
(g8
S'\n\xd7\xa3p=\n\xe7?'
p810
tp811
Rp812
ag4
(g8
S'\xbb\x12\xb5+Q\xbb\xc2?'
p813
tp814
Rp815
aF0.05315804481506348
aI250
aS'kernel = 0 degree'
p816
ag4
(g8
S'\xb6\xf3\xfd\xd4x\xe9\xe6?'
p817
tp818
Rp819
ag4
(g8
S'2g\xcc\x19s\xc6\xdc?'
p820
tp821
Rp822
aF0.05232381820678711
aI250
aS'kernel = 0 degree'
p823
aa(lp824
g4
(g8
S'sh\x91\xed|?\xe5?'
p825
tp826
Rp827
ag4
(g8
S'\x0b\xc6[\xd9\xe7\x90\xca?'
p828
tp829
Rp830
aF0.06087684631347656
aI250
aS'kernel = 1 degree'
p831
ag4
(g8
S'\x83\xc0\xca\xa1E\xb6\xe3?'
p832
tp833
Rp834
ag4
(g8
S'\xb1\x15A\xc3I\xdd\xc7?'
p835
tp836
Rp837
aF0.03346991539001465
aI250
aS'kernel = 1 degree'
p838
ag4
(g8
S'sh\x91\xed|?\xe5?'
p839
tp840
Rp841
ag4
(g8
S'VUUUUU\xd5?'
p842
tp843
Rp844
aF0.051126956939697266
aI250
aS'kernel = 1 degree'
p845
aa(lp846
g4
(g8
S'\x10X9\xb4\xc8v\xde?'
p847
tp848
Rp849
ag4
(g8
S';\xd3\xb8\x81Qg\xda?'
p850
tp851
Rp852
aF0.05952095985412598
aI250
aS'kernel = 1 degree'
p853
ag4
(g8
S'\xbaI\x0c\x02+\x87\xe6?'
p854
tp855
Rp856
ag4
(g8
S'l\xd4w6\xea;\xcb?'
p857
tp858
Rp859
aF0.05501413345336914
aI250
aS'kernel = 1 degree'
p860
ag4
(g8
S'j\xbct\x93\x18\x04\xe6?'
p861
tp862
Rp863
ag4
(g8
S'\x0b\x9b\x03\x89V\xd8\xdc?'
p864
tp865
Rp866
aF0.05009198188781738
aI250
aS'kernel = 1 degree'
p867
aa(lp868
g4
(g8
S'\n\xd7\xa3p=\n\xe7?'
p869
tp870
Rp871
ag4
(g8
S'\x92$I\x92$I\xd2?'
p872
tp873
Rp874
aF0.03671979904174805
aI250
aS'kernel = 1 degree'
p875
ag4
(g8
S'w\xbe\x9f\x1a/\xdd\xe4?'
p876
tp877
Rp878
ag4
(g8
S'\x9c\x9b\x9b\x9b\x9b\x9b\xdb?'
p879
tp880
Rp881
aF0.055097103118896484
aI250
aS'kernel = 1 degree'
p882
ag4
(g8
S'\xc7K7\x89A`\xe5?'
p883
tp884
Rp885
ag4
(g8
S'\x1d\x81\xa2\xad\x06\xcf\xd1?'
p886
tp887
Rp888
aF0.03092503547668457
aI250
aS'kernel = 0 degree'
p889
aa(lp890
g4
(g8
S'\x83\xc0\xca\xa1E\xb6\xe3?'
p891
tp892
Rp893
ag4
(g8
S't\xd1E\x17]t\xd1?'
p894
tp895
Rp896
aF0.06053495407104492
aI250
aS'kernel = 1 degree'
p897
ag4
(g8
S'b\x10X9\xb4\xc8\xe6?'
p898
tp899
Rp900
ag4
(g8
S'\x99\x99\x99\x99\x99\x99\xd9?'
p901
tp902
Rp903
aF0.05440402030944824
aI250
aS'kernel = 1 degree'
p904
ag4
(g8
S'\xbaI\x0c\x02+\x87\xe6?'
p905
tp906
Rp907
ag4
(g8
S'\x89\x88\x88\x88\x88\x88\xd8?'
p908
tp909
Rp910
aF0.030640840530395508
aI250
aS'kernel = 0 degree'
p911
aa(lp912
g4
(g8
S'\xaeG\xe1z\x14\xae\xe7?'
p913
tp914
Rp915
ag4
(g8
S'I\xf1\x02\x99\x14/\xd0?'
p916
tp917
Rp918
aF0.06009697914123535
aI250
aS'kernel = 0 degree'
p919
ag4
(g8
S'\xbe\x9f\x1a/\xdd$\xe6?'
p920
tp921
Rp922
ag4
(g8
S'\xfa~j\xbct\x93\xd8?'
p923
tp924
Rp925
aF0.05410289764404297
aI250
aS'kernel = 1 degree'
p926
ag4
(g8
S'\x06\x81\x95C\x8bl\xe7?'
p927
tp928
Rp929
ag4
(g8
S'\xe4\x91G\x1ey\xe4\xd1?'
p930
tp931
Rp932
aF0.0342409610748291
aI250
aS'kernel = 1 degree'
p933
aa(lp934
g4
(g8
S'\xb2\x9d\xef\xa7\xc6K\xe7?'
p935
tp936
Rp937
ag4
(g8
S'\x17]t\xd1E\x17\xcd?'
p938
tp939
Rp940
aF0.05931687355041504
aI250
aS'kernel = 1 degree'
p941
ag4
(g8
S'\xaeG\xe1z\x14\xae\xe7?'
p942
tp943
Rp944
ag4
(g8
S'\xb3\x88O \x95\x9c\xd7?'
p945
tp946
Rp947
aF0.03410196304321289
aI250
aS'kernel = 0 degree'
p948
ag4
(g8
S'\xbe\x9f\x1a/\xdd$\xe6?'
p949
tp950
Rp951
ag4
(g8
S'\xa0,\x81M\xfb\xc9\xd2?'
p952
tp953
Rp954
aF0.051377058029174805
aI250
aS'kernel = 1 degree'
p955
aa(lp956
g4
(g8
S'\n\xd7\xa3p=\n\xe7?'
p957
tp958
Rp959
ag4
(g8
S'\x92$I\x92$I\xd2?'
p960
tp961
Rp962
aF0.055357933044433594
aI250
aS'kernel = 1 degree'
p963
ag4
(g8
S'\xbaI\x0c\x02+\x87\xe6?'
p964
tp965
Rp966
ag4
(g8
S'm\xd4w6\xea;\xcb?'
p967
tp968
Rp969
aF0.05656886100769043
aI250
aS'kernel = 1 degree'
p970
ag4
(g8
S'\xc3\xf5(\\\x8f\xc2\xe5?'
p971
tp972
Rp973
ag4
(g8
S'\xd8\x89\x9d\xd8\x89\x9d\xd8?'
p974
tp975
Rp976
aF0.03112006187438965
aI250
aS'kernel = 1 degree'
p977
aa(lp978
g4
(g8
S'1\x08\xac\x1cZd\xdb?'
p979
tp980
Rp981
ag4
(g8
S'\x8aJ$_S\xef\xdc?'
p982
tp983
Rp984
aF0.03701281547546387
aI250
aS'kernel = 1 degree'
p985
ag4
(g8
S'ffffff\xe6?'
p986
tp987
Rp988
ag4
(g8
S'\x9eZX\xe9\xa9\x85\xd5?'
p989
tp990
Rp991
aF0.03358197212219238
aI250
aS'kernel = 1 degree'
p992
ag4
(g8
S'#\xdb\xf9~j\xbc\xe4?'
p993
tp994
Rp995
ag4
(g8
S'\x9c\xd4}ylE\xd0?'
p996
tp997
Rp998
aF0.03094005584716797
aI250
aS'kernel = 1 degree'
p999
aa(lp1000
g4
(g8
S'\xb0rh\x91\xed|\xdf?'
p1001
tp1002
Rp1003
ag4
(g8
S'R\xed\xe8L\xaa\x1d\xdd?'
p1004
tp1005
Rp1006
aF0.036206960678100586
aI250
aS'kernel = 1 degree'
p1007
ag4
(g8
S'\xb0rh\x91\xed|\xdf?'
p1008
tp1009
Rp1010
ag4
(g8
S'\xfa\x8dmF\xad\x81\xdc?'
p1011
tp1012
Rp1013
aF0.032920122146606445
aI250
aS'kernel = 1 degree'
p1014
ag4
(g8
S'L7\x89A`\xe5\xe0?'
p1015
tp1016
Rp1017
ag4
(g8
S'/\x90I\xf1\x02\x99\xd4?'
p1018
tp1019
Rp1020
aF0.04836010932922363
aI250
aS'kernel = 1 degree'
p1021
aa(lp1022
g4
(g8
S'\xbe\x9f\x1a/\xdd$\xe6?'
p1023
tp1024
Rp1025
ag4
(g8
S'F\x17]t\xd1E\xd7?'
p1026
tp1027
Rp1028
aF0.036341190338134766
aI250
aS'kernel = 1 degree'
p1029
ag4
(g8
S'\xbe\x9f\x1a/\xdd$\xe6?'
p1030
tp1031
Rp1032
ag4
(g8
S'L&\x93\xc9d2\xd9?'
p1033
tp1034
Rp1035
aF0.055715084075927734
aI250
aS'kernel = 0 degree'
p1036
ag4
(g8
S'\xe3\xa5\x9b\xc4 \xb0\xe2?'
p1037
tp1038
Rp1039
ag4
(g8
S'T\xd6\x945eM\xd9?'
p1040
tp1041
Rp1042
aF0.030425071716308594
aI250
aS'kernel = 1 degree'
p1043
aa(lp1044
g4
(g8
S'\xc3\xf5(\\\x8f\xc2\xe5?'
p1045
tp1046
Rp1047
ag4
(g8
S'\x9a\x99\x99\x99\x99\x99\xc9?'
p1048
tp1049
Rp1050
aF0.036383867263793945
aI250
aS'kernel = 1 degree'
p1051
ag4
(g8
S'o\x12\x83\xc0\xca\xa1\xe5?'
p1052
tp1053
Rp1054
ag4
(g8
S'8\xfb\x85XQ\x1a\xcf?'
p1055
tp1056
Rp1057
aF0.033308982849121094
aI250
aS'kernel = 1 degree'
p1058
ag4
(g8
S'{\x14\xaeG\xe1z\xe4?'
p1059
tp1060
Rp1061
ag4
(g8
S'\x00\x00\x00\x00\x00\x00\xd8?'
p1062
tp1063
Rp1064
aF0.030569076538085938
aI250
aS'kernel = 1 degree'
p1065
aa(lp1066
g4
(g8
S'\n\xd7\xa3p=\n\xe7?'
p1067
tp1068
Rp1069
ag4
(g8
S'\x92$I\x92$I\xd2?'
p1070
tp1071
Rp1072
aF0.059365034103393555
aI250
aS'kernel = 0 degree'
p1073
ag4
(g8
S'\xbe\x9f\x1a/\xdd$\xe6?'
p1074
tp1075
Rp1076
ag4
(g8
S'\x98\x96\x96\x96\x96\x96\xd6?'
p1077
tp1078
Rp1079
aF0.03350496292114258
aI250
aS'kernel = 0 degree'
p1080
ag4
(g8
S'L7\x89A`\xe5\xe0?'
p1081
tp1082
Rp1083
ag4
(g8
S'\xbf\xf6\x90\xcb\x8a\x81\xd2?'
p1084
tp1085
Rp1086
aF0.030511140823364258
aI250
aS'kernel = 1 degree'
p1087
aa(lp1088
g4
(g8
S'^\xbaI\x0c\x02+\xe7?'
p1089
tp1090
Rp1091
ag4
(g8
S'\x84\x10B\x08!\x84\xd0?'
p1092
tp1093
Rp1094
aF0.06198692321777344
aI250
aS'kernel = 1 degree'
p1095
ag4
(g8
S'^\xbaI\x0c\x02+\xe7?'
p1096
tp1097
Rp1098
ag4
(g8
S'\xc6\xb9\x8eQ\x9c\xeb\xd8?'
p1099
tp1100
Rp1101
aF0.033553123474121094
aI250
aS'kernel = 0 degree'
p1102
ag4
(g8
S'sh\x91\xed|?\xe5?'
p1103
tp1104
Rp1105
ag4
(g8
S'Vj\xa5Vj\xa5\xd6?'
p1106
tp1107
Rp1108
aF0.049939870834350586
aI250
aS'kernel = 1 degree'
p1109
aas.