(dp0
S'vehicle'
p1
(lp2
(lp3
cnumpy.core.multiarray
scalar
p4
(cnumpy
dtype
p5
(S'f8'
p6
I0
I1
tp7
Rp8
(I3
S'<'
p9
NNNI-1
I-1
I0
tp10
bS'<\x1b\xf5\x9d\x8d\xfa\xee?'
p11
tp12
Rp13
ag4
(g8
S'\xf0u\xaf{\xdd\xeb\xee?'
p14
tp15
Rp16
aF0.1069650650024414
aI188
aS'kernel = 1 degree'
p17
ag4
(g8
S'<\x1b\xf5\x9d\x8d\xfa\xee?'
p18
tp19
Rp20
ag4
(g8
S'\xf0u\xaf{\xdd\xeb\xee?'
p21
tp22
Rp23
aF0.11412882804870605
aI188
aS'kernel = 1 degree'
p24
ag4
(g8
S'W\x10\x93+\x88\xc9\xed?'
p25
tp26
Rp27
ag4
(g8
S"\xf5'\x19\x8bj\x98\xed?"
p28
tp29
Rp30
aF0.1146690845489502
aI188
aS'kernel = 1 degree'
p31
aa(lp32
g4
(g8
S'\x1b\xf5\x9d\x8d\xfa\xce\xee?'
p33
tp34
Rp35
ag4
(g8
S'\x9f\xed\xd9\x9e\xed\xd9\xee?'
p36
tp37
Rp38
aF0.10555601119995117
aI188
aS'kernel = 1 degree'
p39
ag4
(g8
S'\xfb\xceF}g\xa3\xee?'
p40
tp41
Rp42
ag4
(g8
S'\xac\x0f\x8d\xf5\xa1\xb1\xee?'
p43
tp44
Rp45
aF0.1399519443511963
aI188
aS'kernel = 1 degree'
p46
ag4
(g8
S'1\xb9\x82\x98\\A\xec?'
p47
tp48
Rp49
ag4
(g8
S'UUUUUU\xec?'
p50
tp51
Rp52
aF0.11379098892211914
aI188
aS'kernel = 1 degree'
p53
aa(lp54
g4
(g8
S'\xfb\xceF}g\xa3\xee?'
p55
tp56
Rp57
ag4
(g8
S'\xad\x0f\x8d\xf5\xa1\xb1\xee?'
p58
tp59
Rp60
aF0.11848998069763184
aI188
aS'kernel = 1 degree'
p61
ag4
(g8
S'\xfb\xceF}g\xa3\xee?'
p62
tp63
Rp64
ag4
(g8
S'r\xea\xf7\xdc\x12\xa7\xee?'
p65
tp66
Rp67
aF0.09258294105529785
aI188
aS'kernel = 1 degree'
p68
ag4
(g8
S'\xfb\xceF}g\xa3\xee?'
p69
tp70
Rp71
ag4
(g8
S'\xaa\xaa\xaa\xaa\xaa\xaa\xee?'
p72
tp73
Rp74
aF0.09716105461120605
aI188
aS'kernel = 1 degree'
p75
aa(lp76
g4
(g8
S'\xfb\xceF}g\xa3\xee?'
p77
tp78
Rp79
ag4
(g8
S'\x7f\xe9\x97~\xe9\x97\xee?'
p80
tp81
Rp82
aF0.10480785369873047
aI188
aS'kernel = 1 degree'
p83
ag4
(g8
S'\xfb\xceF}g\xa3\xee?'
p84
tp85
Rp86
ag4
(g8
S'@\xe9\x93>\xe9\x93\xee?'
p87
tp88
Rp89
aF0.10984110832214355
aI188
aS'kernel = 1 degree'
p90
ag4
(g8
S'\x1b\xf5\x9d\x8d\xfa\xce\xee?'
p91
tp92
Rp93
ag4
(g8
S'\xce\x9e\xe4\xfbX\xcd\xee?'
p94
tp95
Rp96
aF0.12689995765686035
aI188
aS'kernel = 1 degree'
p97
aa(lp98
g4
(g8
S'\x9e\x8d\xfa\xceF}\xef?'
p99
tp100
Rp101
ag4
(g8
S'}\x1f\xab\xd9\x93|\xef?'
p102
tp103
Rp104
aF0.12117600440979004
aI188
aS'kernel = 1 degree'
p105
ag4
(g8
S'\xda\xa8\xefl\xd4w\xee?'
p106
tp107
Rp108
ag4
(g8
S'v^\x01\x8d\xbbu\xee?'
p109
tp110
Rp111
aF0.10595703125
aI188
aS'kernel = 1 degree'
p112
ag4
(g8
S'\xda\xa8\xefl\xd4w\xee?'
p113
tp114
Rp115
ag4
(g8
S'vX\xc2Q\xfd}\xee?'
p116
tp117
Rp118
aF0.14171791076660156
aI188
aS'kernel = 1 degree'
p119
aa(lp120
g4
(g8
S'<\x1b\xf5\x9d\x8d\xfa\xee?'
p121
tp122
Rp123
ag4
(g8
S'\xf0u\xaf{\xdd\xeb\xee?'
p124
tp125
Rp126
aF0.10285115242004395
aI188
aS'kernel = 1 degree'
p127
ag4
(g8
S'\xb9\x82\x98\\AL\xee?'
p128
tp129
Rp130
ag4
(g8
S'/\xba\xe8\xa2\x8b.\xee?'
p131
tp132
Rp133
aF0.13530611991882324
aI188
aS'kernel = 1 degree'
p134
ag4
(g8
S'\x10\x93+\x88\xc9\x15\xec?'
p135
tp136
Rp137
ag4
(g8
S'\xfa\xeb\xb9\x8ae\xe3\xeb?'
p138
tp139
Rp140
aF0.08452105522155762
aI188
aS'kernel = 1 degree'
p141
aa(lp142
g4
(g8
S'\xbf\xb3Q\xdf\xd9\xa8\xef?'
p143
tp144
Rp145
ag4
(g8
S'\x9c\xfa=\xb7\xc4\xa9\xef?'
p146
tp147
Rp148
aF0.11518502235412598
aI188
aS'kernel = 1 degree'
p149
ag4
(g8
S'<\x1b\xf5\x9d\x8d\xfa\xee?'
p150
tp151
Rp152
ag4
(g8
S'\x00\x00\x00\x00\x00\x00\xef?'
p153
tp154
Rp155
aF0.10033392906188965
aI188
aS'kernel = 1 degree'
p156
ag4
(g8
S'\xfb\xceF}g\xa3\xee?'
p157
tp158
Rp159
ag4
(g8
S'\xad\x0f\x8d\xf5\xa1\xb1\xee?'
p160
tp161
Rp162
aF0.13159394264221191
aI188
aS'kernel = 1 degree'
p163
aa(lp164
g4
(g8
S'\xda\xa8\xefl\xd4w\xee?'
p165
tp166
Rp167
ag4
(g8
S'\x8aK\x86`\x1dm\xee?'
p168
tp169
Rp170
aF0.11115598678588867
aI188
aS'kernel = 1 degree'
p171
ag4
(g8
S'6\xea;\x1b\xf5\x9d\xed?'
p172
tp173
Rp174
ag4
(g8
S'Y\xc8B\x16\xb2\x90\xed?'
p175
tp176
Rp177
aF0.10366296768188477
aI188
aS'kernel = 1 degree'
p178
ag4
(g8
S'\xf5\x9d\x8d\xfa\xceF\xed?'
p179
tp180
Rp181
ag4
(g8
S'\xfe\xd2/\xfd\xd2/\xed?'
p182
tp183
Rp184
aF0.1064291000366211
aI188
aS'kernel = 1 degree'
p185
aa(lp186
g4
(g8
S'\x1b\xf5\x9d\x8d\xfa\xce\xee?'
p187
tp188
Rp189
ag4
(g8
S'\xce\x9e\xe4\xfbX\xcd\xee?'
p190
tp191
Rp192
aF0.1087348461151123
aI188
aS'kernel = 1 degree'
p193
ag4
(g8
S'\x1b\xf5\x9d\x8d\xfa\xce\xee?'
p194
tp195
Rp196
ag4
(g8
S'#\x9a\xb3\x06\xc5\xd3\xee?'
p197
tp198
Rp199
aF0.09734797477722168
aI188
aS'kernel = 1 degree'
p200
ag4
(g8
S'\xcfF}g\xa3\xbe\xeb?'
p201
tp202
Rp203
ag4
(g8
S'\\\xbe\xe5[\xbe\xe5\xeb?'
p204
tp205
Rp206
aF0.11258697509765625
aI188
aS'kernel = 1 degree'
p207
aa(lp208
g4
(g8
S'\x1b\xf5\x9d\x8d\xfa\xce\xee?'
p209
tp210
Rp211
ag4
(g8
S'\x9a8\x8c\xd5\xd6\xdf\xee?'
p212
tp213
Rp214
aF0.11931395530700684
aI188
aS'kernel = 1 degree'
p215
ag4
(g8
S'<\x1b\xf5\x9d\x8d\xfa\xee?'
p216
tp217
Rp218
ag4
(g8
S'\xc8]?[\xac\x0c\xef?'
p219
tp220
Rp221
aF0.10270500183105469
aI188
aS'kernel = 1 degree'
p222
ag4
(g8
S'\x16\xc4\xe4\nbr\xed?'
p223
tp224
Rp225
ag4
(g8
S'q\x95)`>\x90\xed?'
p226
tp227
Rp228
aF0.10214591026306152
aI188
aS'kernel = 1 degree'
p229
aa(lp230
g4
(g8
S'\x9e\x8d\xfa\xceF}\xef?'
p231
tp232
Rp233
ag4
(g8
S'B\x01\x1d\x9b\xef\x86\xef?'
p234
tp235
Rp236
aF0.0840609073638916
aI188
aS'kernel = 1 degree'
p237
ag4
(g8
S'<\x1b\xf5\x9d\x8d\xfa\xee?'
p238
tp239
Rp240
ag4
(g8
S'\x0b\xd7\xa3p=\n\xef?'
p241
tp242
Rp243
aF0.10405397415161133
aI188
aS'kernel = 1 degree'
p244
ag4
(g8
S'\xf5\x9d\x8d\xfa\xceF\xed?'
p245
tp246
Rp247
ag4
(g8
S'q=\n\xd7\xa3p\xed?'
p248
tp249
Rp250
aF0.09145498275756836
aI188
aS'kernel = 1 degree'
p251
aa(lp252
g4
(g8
S'\xfb\xceF}g\xa3\xee?'
p253
tp254
Rp255
ag4
(g8
S'\x7f\xe9\x97~\xe9\x97\xee?'
p256
tp257
Rp258
aF0.08061790466308594
aI188
aS'kernel = 1 degree'
p259
ag4
(g8
S'\xda\xa8\xefl\xd4w\xee?'
p260
tp261
Rp262
ag4
(g8
S'\xf2!H\xb9\xa9h\xee?'
p263
tp264
Rp265
aF0.07528901100158691
aI188
aS'kernel = 1 degree'
p266
ag4
(g8
S'x6\xea;\x1b\xf5\xed?'
p267
tp268
Rp269
ag4
(g8
S'>\xde\xe3=\xde\xe3\xed?'
p270
tp271
Rp272
aF0.10939598083496094
aI188
aS'kernel = 1 degree'
p273
aa(lp274
g4
(g8
S'\xfb\xceF}g\xa3\xee?'
p275
tp276
Rp277
ag4
(g8
S'~~~~~~\xee?'
p278
tp279
Rp280
aF0.06398606300354004
aI188
aS'kernel = 1 degree'
p281
ag4
(g8
S'\xb9\x82\x98\\AL\xee?'
p282
tp283
Rp284
ag4
(g8
S'\x1d\x1e\x1e\x1e\x1e\x1e\xee?'
p285
tp286
Rp287
aF0.08207416534423828
aI188
aS'kernel = 1 degree'
p288
ag4
(g8
S'W\x10\x93+\x88\xc9\xed?'
p289
tp290
Rp291
ag4
(g8
S'\xc4\xa6\xd2\x90s\x9f\xed?'
p292
tp293
Rp294
aF0.06597495079040527
aI188
aS'kernel = 1 degree'
p295
aa(lp296
g4
(g8
S'\xbf\xb3Q\xdf\xd9\xa8\xef?'
p297
tp298
Rp299
ag4
(g8
S'{\xd3\x9b\xde\xf4\xa6\xef?'
p300
tp301
Rp302
aF0.08272814750671387
aI188
aS'kernel = 1 degree'
p303
ag4
(g8
S'\x1b\xf5\x9d\x8d\xfa\xce\xee?'
p304
tp305
Rp306
ag4
(g8
S'\x17\x90/\x12\xa5\xc6\xee?'
p307
tp308
Rp309
aF0.05877113342285156
aI188
aS'kernel = 1 degree'
p310
ag4
(g8
S'}g\xa3\xbe\xb3Q\xef?'
p311
tp312
Rp313
ag4
(g8
S'\xa0\xf4I\x9f\xf4I\xef?'
p314
tp315
Rp316
aF0.10122084617614746
aI188
aS'kernel = 1 degree'
p317
aa(lp318
g4
(g8
S'\xda\xa8\xefl\xd4w\xee?'
p319
tp320
Rp321
ag4
(g8
S'\x0c\xe55\x94\xd7P\xee?'
p322
tp323
Rp324
aF0.07822608947753906
aI188
aS'kernel = 1 degree'
p325
ag4
(g8
S']AL\xae &\xef?'
p326
tp327
Rp328
ag4
(g8
S'\x8b\x045\x15\xa2\r\xef?'
p329
tp330
Rp331
aF0.09167003631591797
aI188
aS'kernel = 1 degree'
p332
ag4
(g8
S'\x1b\xf5\x9d\x8d\xfa\xce\xee?'
p333
tp334
Rp335
ag4
(g8
S'\xb8\x1e\x85\xebQ\xb8\xee?'
p336
tp337
Rp338
aF0.07754993438720703
aI188
aS'kernel = 1 degree'
p339
aa(lp340
g4
(g8
S'}g\xa3\xbe\xb3Q\xef?'
p341
tp342
Rp343
ag4
(g8
S'\xcf\xf3<\xcf\xf3<\xef?'
p344
tp345
Rp346
aF0.06937122344970703
aI188
aS'kernel = 1 degree'
p347
ag4
(g8
S'\x1b\xf5\x9d\x8d\xfa\xce\xee?'
p348
tp349
Rp350
ag4
(g8
S'\t\xeb)\xac\xa7\xb0\xee?'
p351
tp352
Rp353
aF0.0770268440246582
aI188
aS'kernel = 1 degree'
p354
ag4
(g8
S'\xd4w6\xea;\x1b\xed?'
p355
tp356
Rp357
ag4
(g8
S'\x8e \xd2z\x01\xdb\xec?'
p358
tp359
Rp360
aF0.08292198181152344
aI188
aS'kernel = 1 degree'
p361
aa(lp362
g4
(g8
S']AL\xae &\xef?'
p363
tp364
Rp365
ag4
(g8
S"t\xf2\xd1\xc9G'\xef?"
p366
tp367
Rp368
aF0.06281590461730957
aI188
aS'kernel = 1 degree'
p369
ag4
(g8
S'}g\xa3\xbe\xb3Q\xef?'
p370
tp371
Rp372
ag4
(g8
S'\xf5\xa67\xbd\xe9M\xef?'
p373
tp374
Rp375
aF0.09667205810546875
aI188
aS'kernel = 1 degree'
p376
ag4
(g8
S'x6\xea;\x1b\xf5\xed?'
p377
tp378
Rp379
ag4
(g8
S'\xdf\xf4\xa67\xbd\xe9\xed?'
p380
tp381
Rp382
aF0.06795191764831543
aI188
aS'kernel = 1 degree'
p383
aa(lp384
g4
(g8
S'\xda\xa8\xefl\xd4w\xee?'
p385
tp386
Rp387
ag4
(g8
S'}c\xda\x04\x94\xa2\xee?'
p388
tp389
Rp390
aF0.10139608383178711
aI188
aS'kernel = 1 degree'
p391
ag4
(g8
S'\x99\\AL\xae \xee?'
p392
tp393
Rp394
ag4
(g8
S'I\xde\x86\xe4mH\xee?'
p395
tp396
Rp397
aF0.07436394691467285
aI188
aS'kernel = 1 degree'
p398
ag4
(g8
S'6\xea;\x1b\xf5\x9d\xed?'
p399
tp400
Rp401
ag4
(g8
S'\x8b\x9d\xd8\x89\x9d\xd8\xed?'
p402
tp403
Rp404
aF0.07368206977844238
aI188
aS'kernel = 1 degree'
p405
aa(lp406
g4
(g8
S']AL\xae &\xef?'
p407
tp408
Rp409
ag4
(g8
S'\xdf\xf2-\xdf\xf2-\xef?'
p410
tp411
Rp412
aF0.08376288414001465
aI188
aS'kernel = 1 degree'
p413
ag4
(g8
S'<\x1b\xf5\x9d\x8d\xfa\xee?'
p414
tp415
Rp416
ag4
(g8
S'\x08\x1f|\xf0\xc1\x07\xef?'
p417
tp418
Rp419
aF0.07723617553710938
aI188
aS'kernel = 1 degree'
p420
ag4
(g8
S'\xb9\x82\x98\\AL\xee?'
p421
tp422
Rp423
ag4
(g8
S'\r\x89y;Cb\xee?'
p424
tp425
Rp426
aF0.09721899032592773
aI188
aS'kernel = 1 degree'
p427
aa(lp428
g4
(g8
S']AL\xae &\xef?'
p429
tp430
Rp431
ag4
(g8
S'\xe0\xf2-\xdf\xf2-\xef?'
p432
tp433
Rp434
aF0.07757115364074707
aI188
aS'kernel = 1 degree'
p435
ag4
(g8
S'x6\xea;\x1b\xf5\xed?'
p436
tp437
Rp438
ag4
(g8
S'\x10>\xf8\xe0\x83\x0f\xee?'
p439
tp440
Rp441
aF0.07955098152160645
aI188
aS'kernel = 1 degree'
p442
ag4
(g8
S'W\x10\x93+\x88\xc9\xed?'
p443
tp444
Rp445
ag4
(g8
S'/,FBi\xe3\xed?'
p446
tp447
Rp448
aF0.07410001754760742
aI188
aS'kernel = 1 degree'
p449
aa(lp450
g4
(g8
S'\xbf\xb3Q\xdf\xd9\xa8\xef?'
p451
tp452
Rp453
ag4
(g8
S'{\xd3\x9b\xde\xf4\xa6\xef?'
p454
tp455
Rp456
aF0.06404399871826172
aI188
aS'kernel = 1 degree'
p457
ag4
(g8
S'\x9e\x8d\xfa\xceF}\xef?'
p458
tp459
Rp460
ag4
(g8
S'/\x19\x82u\xb4y\xef?'
p461
tp462
Rp463
aF0.08164787292480469
aI188
aS'kernel = 1 degree'
p464
ag4
(g8
S'\xda\xa8\xefl\xd4w\xee?'
p465
tp466
Rp467
ag4
(g8
S'\x13Fu\x9a\x1cd\xee?'
p468
tp469
Rp470
aF0.07531309127807617
aI188
aS'kernel = 1 degree'
p471
aa(lp472
g4
(g8
S'}g\xa3\xbe\xb3Q\xef?'
p473
tp474
Rp475
ag4
(g8
S'\xcf\xf3<\xcf\xf3<\xef?'
p476
tp477
Rp478
aF0.08117389678955078
aI188
aS'kernel = 1 degree'
p479
ag4
(g8
S'}g\xa3\xbe\xb3Q\xef?'
p480
tp481
Rp482
ag4
(g8
S'\xcf\xf3<\xcf\xf3<\xef?'
p483
tp484
Rp485
aF0.08845186233520508
aI188
aS'kernel = 1 degree'
p486
ag4
(g8
S'W\x10\x93+\x88\xc9\xed?'
p487
tp488
Rp489
ag4
(g8
S'\x14\xd9Md7\x91\xed?'
p490
tp491
Rp492
aF0.07979798316955566
aI188
aS'kernel = 1 degree'
p493
aa(lp494
g4
(g8
S'\x1b\xf5\x9d\x8d\xfa\xce\xee?'
p495
tp496
Rp497
ag4
(g8
S'\x9f\xed\xd9\x9e\xed\xd9\xee?'
p498
tp499
Rp500
aF0.08687400817871094
aI188
aS'kernel = 1 degree'
p501
ag4
(g8
S'\xfb\xceF}g\xa3\xee?'
p502
tp503
Rp504
ag4
(g8
S'\x0b\xd4\xfa\x95\x02\xb5\xee?'
p505
tp506
Rp507
aF0.06929898262023926
aI188
aS'kernel = 1 degree'
p508
ag4
(g8
S'\xf5\x9d\x8d\xfa\xceF\xed?'
p509
tp510
Rp511
ag4
(g8
S'\xe2\xd4\xef\xb9%N\xed?'
p512
tp513
Rp514
aF0.06861495971679688
aI188
aS'kernel = 1 degree'
p515
aa(lp516
g4
(g8
S'<\x1b\xf5\x9d\x8d\xfa\xee?'
p517
tp518
Rp519
ag4
(g8
S'\xd5\xaeD\xedJ\xd4\xee?'
p520
tp521
Rp522
aF0.0722968578338623
aI188
aS'kernel = 1 degree'
p523
ag4
(g8
S'\x99\\AL\xae \xee?'
p524
tp525
Rp526
ag4
(g8
S'&\xe8\xaeRL\xd0\xed?'
p527
tp528
Rp529
aF0.048790931701660156
aI188
aS'kernel = 1 degree'
p530
ag4
(g8
S'W\x10\x93+\x88\xc9\xed?'
p531
tp532
Rp533
ag4
(g8
S'\x14\xd9Md7\x91\xed?'
p534
tp535
Rp536
aF0.06810498237609863
aI188
aS'kernel = 1 degree'
p537
aa(lp538
g4
(g8
S'\xbf\xb3Q\xdf\xd9\xa8\xef?'
p539
tp540
Rp541
ag4
(g8
S'{\xd3\x9b\xde\xf4\xa6\xef?'
p542
tp543
Rp544
aF0.06732606887817383
aI188
aS'kernel = 1 degree'
p545
ag4
(g8
S'\xb9\x82\x98\\AL\xee?'
p546
tp547
Rp548
ag4
(g8
S'\xe5\x19\xcfx\xc63\xee?'
p549
tp550
Rp551
aF0.06839299201965332
aI188
aS'kernel = 1 degree'
p552
ag4
(g8
S'\xda\xa8\xefl\xd4w\xee?'
p553
tp554
Rp555
ag4
(g8
S'v^\x01\x8d\xbbu\xee?'
p556
tp557
Rp558
aF0.07476091384887695
aI188
aS'kernel = 1 degree'
p559
aa(lp560
g4
(g8
S'\xfb\xceF}g\xa3\xee?'
p561
tp562
Rp563
ag4
(g8
S'\xfb\xceF}g\xa3\xee?'
p564
tp565
Rp566
aF0.09633302688598633
aI188
aS'kernel = 1 degree'
p567
ag4
(g8
S'\x1b\xf5\x9d\x8d\xfa\xce\xee?'
p568
tp569
Rp570
ag4
(g8
S'#\x9a\xb3\x06\xc5\xd3\xee?'
p571
tp572
Rp573
aF0.08664393424987793
aI188
aS'kernel = 1 degree'
p574
ag4
(g8
S'\x1b\xf5\x9d\x8d\xfa\xce\xee?'
p575
tp576
Rp577
ag4
(g8
S'"\xa7\x02~\xe1\xd6\xee?'
p578
tp579
Rp580
aF0.09707498550415039
aI188
aS'kernel = 1 degree'
p581
aa(lp582
g4
(g8
S'x6\xea;\x1b\xf5\xed?'
p583
tp584
Rp585
ag4
(g8
S'x6\xea;\x1b\xf5\xed?'
p586
tp587
Rp588
aF0.06048917770385742
aI188
aS'kernel = 1 degree'
p589
ag4
(g8
S'\x16\xc4\xe4\nbr\xed?'
p590
tp591
Rp592
ag4
(g8
S'\x938x\xdf\x1aY\xed?'
p593
tp594
Rp595
aF0.09774613380432129
aI188
aS'kernel = 1 degree'
p596
ag4
(g8
S'\x93+\x88\xc9\x15\xc4\xec?'
p597
tp598
Rp599
ag4
(g8
S'\xf5g\xf0\x9b\xe8\xe9\xec?'
p600
tp601
Rp602
aF0.08530712127685547
aI188
aS'kernel = 1 degree'
p603
aa(lp604
g4
(g8
S'\x1b\xf5\x9d\x8d\xfa\xce\xee?'
p605
tp606
Rp607
ag4
(g8
S'\x9a8\x8c\xd5\xd6\xdf\xee?'
p608
tp609
Rp610
aF0.07805109024047852
aI188
aS'kernel = 1 degree'
p611
ag4
(g8
S'<\x1b\xf5\x9d\x8d\xfa\xee?'
p612
tp613
Rp614
ag4
(g8
S'\xc1\xcb)x9\x05\xef?'
p615
tp616
Rp617
aF0.0888979434967041
aI188
aS'kernel = 1 degree'
p618
ag4
(g8
S'\xfb\xceF}g\xa3\xee?'
p619
tp620
Rp621
ag4
(g8
S'\xb8\x1e\x85\xebQ\xb8\xee?'
p622
tp623
Rp624
aF0.07556319236755371
aI188
aS'kernel = 1 degree'
p625
aa(lp626
g4
(g8
S']AL\xae &\xef?'
p627
tp628
Rp629
ag4
(g8
S'8\x1f\x83\xf318\xef?'
p630
tp631
Rp632
aF0.0666360855102539
aI188
aS'kernel = 1 degree'
p633
ag4
(g8
S'\xda\xa8\xefl\xd4w\xee?'
p634
tp635
Rp636
ag4
(g8
S'\x98\x9e\x85\xe9Y\x98\xee?'
p637
tp638
Rp639
aF0.07817602157592773
aI188
aS'kernel = 1 degree'
p640
ag4
(g8
S'\xb9\x82\x98\\AL\xee?'
p641
tp642
Rp643
ag4
(g8
S"c'vb'v\xee?"
p644
tp645
Rp646
aF0.0846409797668457
aI188
aS'kernel = 1 degree'
p647
aa(lp648
g4
(g8
S'\xbf\xb3Q\xdf\xd9\xa8\xef?'
p649
tp650
Rp651
ag4
(g8
S'\xaa\xaa\xaa\xaa\xaa\xaa\xef?'
p652
tp653
Rp654
aF0.10041999816894531
aI188
aS'kernel = 1 degree'
p655
ag4
(g8
S'\xd4w6\xea;\x1b\xed?'
p656
tp657
Rp658
ag4
(g8
S'\xb3\xfe\x0c~\x13=\xed?'
p659
tp660
Rp661
aF0.06589698791503906
aI188
aS'kernel = 1 degree'
p662
ag4
(g8
S'\xb9\x82\x98\\AL\xee?'
p663
tp664
Rp665
ag4
(g8
S'\x98S\xf0r\n^\xee?'
p666
tp667
Rp668
aF0.06702613830566406
aI188
aS'kernel = 1 degree'
p669
aa(lp670
g4
(g8
S'<\x1b\xf5\x9d\x8d\xfa\xee?'
p671
tp672
Rp673
ag4
(g8
S'\x00\x00\x00\x00\x00\x00\xef?'
p674
tp675
Rp676
aF0.08407378196716309
aI188
aS'kernel = 1 degree'
p677
ag4
(g8
S'\xfb\xceF}g\xa3\xee?'
p678
tp679
Rp680
ag4
(g8
S'\xab\xaa\xaa\xaa\xaa\xaa\xee?'
p681
tp682
Rp683
aF0.06548094749450684
aI188
aS'kernel = 1 degree'
p684
ag4
(g8
S'W\x10\x93+\x88\xc9\xed?'
p685
tp686
Rp687
ag4
(g8
S'\x1d\xd5\xdf\xe7m\xd2\xed?'
p688
tp689
Rp690
aF0.06857013702392578
aI188
aS'kernel = 1 degree'
p691
aa(lp692
g4
(g8
S'\xfb\xceF}g\xa3\xee?'
p693
tp694
Rp695
ag4
(g8
S'\xfb\xceF}g\xa3\xee?'
p696
tp697
Rp698
aF0.09146714210510254
aI188
aS'kernel = 1 degree'
p699
ag4
(g8
S'\xb9\x82\x98\\AL\xee?'
p700
tp701
Rp702
ag4
(g8
S'd!\x0bY\xc8B\xee?'
p703
tp704
Rp705
aF0.09038019180297852
aI188
aS'kernel = 1 degree'
p706
ag4
(g8
S'W\x10\x93+\x88\xc9\xed?'
p707
tp708
Rp709
ag4
(g8
S'\x1d\xd5\xdf\xe7m\xd2\xed?'
p710
tp711
Rp712
aF0.06937384605407715
aI188
aS'kernel = 1 degree'
p713
aa(lp714
g4
(g8
S'\xda\xa8\xefl\xd4w\xee?'
p715
tp716
Rp717
ag4
(g8
S'\x0c\xe55\x94\xd7P\xee?'
p718
tp719
Rp720
aF0.07470297813415527
aI188
aS'kernel = 1 degree'
p721
ag4
(g8
S'\x9e\x8d\xfa\xceF}\xef?'
p722
tp723
Rp724
ag4
(g8
S'\x04\xf7\x11\xdcGp\xef?'
p725
tp726
Rp727
aF0.09671998023986816
aI188
aS'kernel = 1 degree'
p728
ag4
(g8
S'\x93+\x88\xc9\x15\xc4\xec?'
p729
tp730
Rp731
ag4
(g8
S'n\xfe\n\xb3\x1aE\xec?'
p732
tp733
Rp734
aF0.0650031566619873
aI188
aS'kernel = 1 degree'
p735
aa(lp736
g4
(g8
S'\xbf\xb3Q\xdf\xd9\xa8\xef?'
p737
tp738
Rp739
ag4
(g8
S'\x9c\x8f\xc1\xf9\x18\x9c\xef?'
p740
tp741
Rp742
aF0.07054686546325684
aI188
aS'kernel = 1 degree'
p743
ag4
(g8
S'<\x1b\xf5\x9d\x8d\xfa\xee?'
p744
tp745
Rp746
ag4
(g8
S'\n\xed%\xb4\x97\xd0\xee?'
p747
tp748
Rp749
aF0.06986594200134277
aI188
aS'kernel = 1 degree'
p750
ag4
(g8
S'\x99\\AL\xae \xee?'
p751
tp752
Rp753
ag4
(g8
S'\x10\xdfA|\x07\xf1\xed?'
p754
tp755
Rp756
aF0.08429408073425293
aI188
aS'kernel = 1 degree'
p757
aa(lp758
g4
(g8
S'\xfb\xceF}g\xa3\xee?'
p759
tp760
Rp761
ag4
(g8
S'a\xd2\xa9y\x90\xbb\xee?'
p762
tp763
Rp764
aF0.0636298656463623
aI188
aS'kernel = 1 degree'
p765
ag4
(g8
S'<\x1b\xf5\x9d\x8d\xfa\xee?'
p766
tp767
Rp768
ag4
(g8
S'\x0b\xd7\xa3p=\n\xef?'
p769
tp770
Rp771
aF0.07653093338012695
aI188
aS'kernel = 1 degree'
p772
ag4
(g8
S'\xd4w6\xea;\x1b\xed?'
p773
tp774
Rp775
ag4
(g8
S']\xd35]\xd35\xed?'
p776
tp777
Rp778
aF0.06324195861816406
aI188
aS'kernel = 1 degree'
p779
aa(lp780
g4
(g8
S'\xfb\xceF}g\xa3\xee?'
p781
tp782
Rp783
ag4
(g8
S'\xfb\xceF}g\xa3\xee?'
p784
tp785
Rp786
aF0.0647728443145752
aI188
aS'kernel = 1 degree'
p787
ag4
(g8
S'6\xea;\x1b\xf5\x9d\xed?'
p788
tp789
Rp790
ag4
(g8
S'F\xda\xb1\x02a\xa4\xed?'
p791
tp792
Rp793
aF0.08049392700195312
aI188
aS'kernel = 1 degree'
p794
ag4
(g8
S'R\xdf\xd9\xa8\xefl\xec?'
p795
tp796
Rp797
ag4
(g8
S'B\xb0\x8e6\xefS\xec?'
p798
tp799
Rp800
aF0.06559300422668457
aI188
aS'kernel = 1 degree'
p801
aa(lp802
g4
(g8
S'\xfb\xceF}g\xa3\xee?'
p803
tp804
Rp805
ag4
(g8
S'\t\xd4\xfa\x95\x02\xb5\xee?'
p806
tp807
Rp808
aF0.08389902114868164
aI188
aS'kernel = 1 degree'
p809
ag4
(g8
S'\x1b\xf5\x9d\x8d\xfa\xce\xee?'
p810
tp811
Rp812
ag4
(g8
S'GX\xeei\x84\xe5\xee?'
p813
tp814
Rp815
aF0.06689810752868652
aI188
aS'kernel = 1 degree'
p816
ag4
(g8
S'm\xd4w6\xea;\xeb?'
p817
tp818
Rp819
ag4
(g8
S'\x9b\x9b\x9b\x9b\x9b\x9b\xeb?'
p820
tp821
Rp822
aF0.0890200138092041
aI188
aS'kernel = 1 degree'
p823
aa(lp824
g4
(g8
S'\xb9\x82\x98\\AL\xee?'
p825
tp826
Rp827
ag4
(g8
S'\x97S\xf0r\n^\xee?'
p828
tp829
Rp830
aF0.10405302047729492
aI188
aS'kernel = 1 degree'
p831
ag4
(g8
S'\xda\xa8\xefl\xd4w\xee?'
p832
tp833
Rp834
ag4
(g8
S'h\xb7\xf0\xab1\x91\xee?'
p835
tp836
Rp837
aF0.08045601844787598
aI188
aS'kernel = 1 degree'
p838
ag4
(g8
S'\xda\xa8\xefl\xd4w\xee?'
p839
tp840
Rp841
ag4
(g8
S'\xabY\x7f\x06\xbf\x89\xee?'
p842
tp843
Rp844
aF0.06619501113891602
aI188
aS'kernel = 1 degree'
p845
aa(lp846
g4
(g8
S'\xda\xa8\xefl\xd4w\xee?'
p847
tp848
Rp849
ag4
(g8
S'\x0c\xe55\x94\xd7P\xee?'
p850
tp851
Rp852
aF0.08151006698608398
aI188
aS'kernel = 1 degree'
p853
ag4
(g8
S'}g\xa3\xbe\xb3Q\xef?'
p854
tp855
Rp856
ag4
(g8
S'\xd0\x17\xf4\x05}A\xef?'
p857
tp858
Rp859
aF0.06542587280273438
aI188
aS'kernel = 1 degree'
p860
ag4
(g8
S']AL\xae &\xef?'
p861
tp862
Rp863
ag4
(g8
S'\xc06\xa7\xab<\x13\xef?'
p864
tp865
Rp866
aF0.07962584495544434
aI188
aS'kernel = 1 degree'
p867
aa(lp868
g4
(g8
S'\xda\xa8\xefl\xd4w\xee?'
p869
tp870
Rp871
ag4
(g8
S'\x8aK\x86`\x1dm\xee?'
p872
tp873
Rp874
aF0.08185577392578125
aI188
aS'kernel = 1 degree'
p875
ag4
(g8
S'\xf5\x9d\x8d\xfa\xceF\xed?'
p876
tp877
Rp878
ag4
(g8
S'\xd3\x9b\xde\xf4\xa67\xed?'
p879
tp880
Rp881
aF0.07401084899902344
aI188
aS'kernel = 1 degree'
p882
ag4
(g8
S'\xfb\xceF}g\xa3\xee?'
p883
tp884
Rp885
ag4
(g8
S'\xa0~\xfa\xe9\xa7\x9f\xee?'
p886
tp887
Rp888
aF0.08039498329162598
aI188
aS'kernel = 1 degree'
p889
aa(lp890
g4
(g8
S'\xbf\xb3Q\xdf\xd9\xa8\xef?'
p891
tp892
Rp893
ag4
(g8
S'\xa8\x9f~\xfa\xe9\xa7\xef?'
p894
tp895
Rp896
aF0.049674034118652344
aI188
aS'kernel = 1 degree'
p897
ag4
(g8
S']AL\xae &\xef?'
p898
tp899
Rp900
ag4
(g8
S'\xa3\xd4\xd8\xc3, \xef?'
p901
tp902
Rp903
aF0.06684708595275879
aI188
aS'kernel = 1 degree'
p904
ag4
(g8
S'\xf5\x9d\x8d\xfa\xceF\xed?'
p905
tp906
Rp907
ag4
(g8
S'\xd2\x8f~\xf4\xa3\x1f\xed?'
p908
tp909
Rp910
aF0.06783008575439453
aI188
aS'kernel = 1 degree'
p911
aa(lp912
g4
(g8
S'\x9e\x8d\xfa\xceF}\xef?'
p913
tp914
Rp915
ag4
(g8
S"\xc7V\x04\r'u\xef?"
p916
tp917
Rp918
aF0.0940561294555664
aI188
aS'kernel = 1 degree'
p919
ag4
(g8
S'\x1b\xf5\x9d\x8d\xfa\xce\xee?'
p920
tp921
Rp922
ag4
(g8
S'\xb8\x1e\x85\xebQ\xb8\xee?'
p923
tp924
Rp925
aF0.09459900856018066
aI188
aS'kernel = 1 degree'
p926
ag4
(g8
S'\x99\\AL\xae \xee?'
p927
tp928
Rp929
ag4
(g8
S'kyc\x04\x13\xfd\xed?'
p930
tp931
Rp932
aF0.061094045639038086
aI188
aS'kernel = 1 degree'
p933
aa(lp934
g4
(g8
S'\xbf\xb3Q\xdf\xd9\xa8\xef?'
p935
tp936
Rp937
ag4
(g8
S'm\x1d\xfa\xcd\xd6\xa1\xef?'
p938
tp939
Rp940
aF0.09703898429870605
aI188
aS'kernel = 1 degree'
p941
ag4
(g8
S']AL\xae &\xef?'
p942
tp943
Rp944
ag4
(g8
S'M;\x07k\x96\x18\xef?'
p945
tp946
Rp947
aF0.07362103462219238
aI188
aS'kernel = 1 degree'
p948
ag4
(g8
S'R\xdf\xd9\xa8\xefl\xec?'
p949
tp950
Rp951
ag4
(g8
S'4O\xa8\x05\x8cI\xec?'
p952
tp953
Rp954
aF0.06609296798706055
aI188
aS'kernel = 1 degree'
p955
aa(lp956
g4
(g8
S'\xda\xa8\xefl\xd4w\xee?'
p957
tp958
Rp959
ag4
(g8
S'}c\xda\x04\x94\xa2\xee?'
p960
tp961
Rp962
aF0.0717618465423584
aI188
aS'kernel = 1 degree'
p963
ag4
(g8
S']AL\xae &\xef?'
p964
tp965
Rp966
ag4
(g8
S'\x06\x0bG\xe6\x04<\xef?'
p967
tp968
Rp969
aF0.07831192016601562
aI188
aS'kernel = 1 degree'
p970
ag4
(g8
S'\xb9\x82\x98\\AL\xee?'
p971
tp972
Rp973
ag4
(g8
S'nnnnnn\xee?'
p974
tp975
Rp976
aF0.07324910163879395
aI188
aS'kernel = 1 degree'
p977
aa(lp978
g4
(g8
S']AL\xae &\xef?'
p979
tp980
Rp981
ag4
(g8
S'\xe0\xf2-\xdf\xf2-\xef?'
p982
tp983
Rp984
aF0.0773000717163086
aI188
aS'kernel = 1 degree'
p985
ag4
(g8
S'\xfb\xceF}g\xa3\xee?'
p986
tp987
Rp988
ag4
(g8
S'\x7f\xd0Q\x81/\xae\xee?'
p989
tp990
Rp991
aF0.0803079605102539
aI188
aS'kernel = 1 degree'
p992
ag4
(g8
S'\x9e\x8d\xfa\xceF}\xef?'
p993
tp994
Rp995
ag4
(g8
S'\xa0GJ\xc8\xa9\x80\xef?'
p996
tp997
Rp998
aF0.11381196975708008
aI188
aS'kernel = 1 degree'
p999
aa(lp1000
g4
(g8
S'\x1b\xf5\x9d\x8d\xfa\xce\xee?'
p1001
tp1002
Rp1003
ag4
(g8
S'g\xf0\x9b\xe8\xe9\xdc\xee?'
p1004
tp1005
Rp1006
aF0.06694793701171875
aI188
aS'kernel = 1 degree'
p1007
ag4
(g8
S'x6\xea;\x1b\xf5\xed?'
p1008
tp1009
Rp1010
ag4
(g8
S'\xbe\xb8\xfaAG\x05\xee?'
p1011
tp1012
Rp1013
aF0.06087493896484375
aI188
aS'kernel = 1 degree'
p1014
ag4
(g8
S'6\xea;\x1b\xf5\x9d\xed?'
p1015
tp1016
Rp1017
ag4
(g8
S'\xc4\xf5(\\\x8f\xc2\xed?'
p1018
tp1019
Rp1020
aF0.061289072036743164
aI188
aS'kernel = 1 degree'
p1021
aa(lp1022
g4
(g8
S'\xfb\xceF}g\xa3\xee?'
p1023
tp1024
Rp1025
ag4
(g8
S'\xa1/\xe8\x0b\xfa\x82\xee?'
p1026
tp1027
Rp1028
aF0.07111096382141113
aI188
aS'kernel = 1 degree'
p1029
ag4
(g8
S'\x1b\xf5\x9d\x8d\xfa\xce\xee?'
p1030
tp1031
Rp1032
ag4
(g8
S'\xb9\x1e\x85\xebQ\xb8\xee?'
p1033
tp1034
Rp1035
aF0.07683205604553223
aI188
aS'kernel = 1 degree'
p1036
ag4
(g8
S'\x16\xc4\xe4\nbr\xed?'
p1037
tp1038
Rp1039
ag4
(g8
S'W\xe1\xcb\r1 \xed?'
p1040
tp1041
Rp1042
aF0.07969188690185547
aI188
aS'kernel = 1 degree'
p1043
aa(lp1044
g4
(g8
S'\xfb\xceF}g\xa3\xee?'
p1045
tp1046
Rp1047
ag4
(g8
S'\xa1/\xe8\x0b\xfa\x82\xee?'
p1048
tp1049
Rp1050
aF0.07520508766174316
aI188
aS'kernel = 1 degree'
p1051
ag4
(g8
S'\xda\xa8\xefl\xd4w\xee?'
p1052
tp1053
Rp1054
ag4
(g8
S'Z/`\x9b\xd3U\xee?'
p1055
tp1056
Rp1057
aF0.0833120346069336
aI188
aS'kernel = 1 degree'
p1058
ag4
(g8
S'\x99\\AL\xae \xee?'
p1059
tp1060
Rp1061
ag4
(g8
S'\xdb\xe8\x0f\x85\xe4\x02\xee?'
p1062
tp1063
Rp1064
aF0.08368778228759766
aI188
aS'kernel = 1 degree'
p1065
aa(lp1066
g4
(g8
S'\x1b\xf5\x9d\x8d\xfa\xce\xee?'
p1067
tp1068
Rp1069
ag4
(g8
S'g\xf0\x9b\xe8\xe9\xdc\xee?'
p1070
tp1071
Rp1072
aF0.10106396675109863
aI188
aS'kernel = 1 degree'
p1073
ag4
(g8
S'\xb9\x82\x98\\AL\xee?'
p1074
tp1075
Rp1076
ag4
(g8
S'\x97S\xf0r\n^\xee?'
p1077
tp1078
Rp1079
aF0.07610416412353516
aI188
aS'kernel = 1 degree'
p1080
ag4
(g8
S'\xd4w6\xea;\x1b\xed?'
p1081
tp1082
Rp1083
ag4
(g8
S"\xf3\xd1\xc9G'\x1f\xed?"
p1084
tp1085
Rp1086
aF0.0664360523223877
aI188
aS'kernel = 1 degree'
p1087
aa(lp1088
g4
(g8
S'W\x10\x93+\x88\xc9\xed?'
p1089
tp1090
Rp1091
ag4
(g8
S'\x1c\xd5\xdf\xe7m\xd2\xed?'
p1092
tp1093
Rp1094
aF0.08975505828857422
aI188
aS'kernel = 1 degree'
p1095
ag4
(g8
S'\x16\xc4\xe4\nbr\xed?'
p1096
tp1097
Rp1098
ag4
(g8
S'o\x9dW@\xe3n\xed?'
p1099
tp1100
Rp1101
aF0.09086203575134277
aI188
aS'kernel = 1 degree'
p1102
ag4
(g8
S'\x10\x93+\x88\xc9\x15\xec?'
p1103
tp1104
Rp1105
ag4
(g8
S'\xbc\x8c)_\x87%\xec?'
p1106
tp1107
Rp1108
aF0.06508398056030273
aI188
aS'kernel = 1 degree'
p1109
aas.