(dp0
S'letter'
p1
(lp2
(lp3
cnumpy.core.multiarray
scalar
p4
(cnumpy
dtype
p5
(S'f8'
p6
I0
I1
tp7
Rp8
(I3
S'<'
p9
NNNI-1
I-1
I0
tp10
bS'\xb8\x1e\x85\xebQ\xb8\xee?'
p11
tp12
Rp13
ag4
(g8
S'!\xce\xcaO\x88\xb3\xee?'
p14
tp15
Rp16
aF3.0732340812683105
aI5000
aS'kernel = 2 degree'
p17
ag4
(g8
S'n4\x80\xb7@\x82\xee?'
p18
tp19
Rp20
ag4
(g8
S'\r\xa6\xf6.\xc9~\xee?'
p21
tp22
Rp23
aF1.7189710140228271
aI5000
aS'kernel = 2 degree'
p24
ag4
(g8
S'\x98n\x12\x83\xc0\xca\xed?'
p25
tp26
Rp27
ag4
(g8
S'\xe5q \xb9\x89\xc6\xed?'
p28
tp29
Rp30
aF1.3240160942077637
aI5000
aS'kernel = 2 degree'
p31
aa(lp32
g4
(g8
S'\x8f\xc2\xf5(\\\x8f\xee?'
p33
tp34
Rp35
ag4
(g8
S'\xaaY\x7f\x06\xbf\x89\xee?'
p36
tp37
Rp38
aF2.975011110305786
aI5000
aS'kernel = 2 degree'
p39
ag4
(g8
S'\x9b\xe6\x1d\xa7\xe8H\xee?'
p40
tp41
Rp42
ag4
(g8
S'\xc2\x13\x8f\xb0!B\xee?'
p43
tp44
Rp45
aF1.516700029373169
aI5000
aS'kernel = 2 degree'
p46
ag4
(g8
S'\x08=\x9bU\x9f\xab\xed?'
p47
tp48
Rp49
ag4
(g8
S'\xa3\x8b.\xba\xe8\xa2\xed?'
p50
tp51
Rp52
aF1.7412359714508057
aI5000
aS'kernel = 2 degree'
p53
aa(lp54
g4
(g8
S'u\x02\x9a\x08\x1b\x9e\xee?'
p55
tp56
Rp57
ag4
(g8
S'L\x96\xc6/\xae\x9d\xee?'
p58
tp59
Rp60
aF1.8289799690246582
aI5000
aS'kernel = 2 degree'
p61
ag4
(g8
S'\x99\xbb\x96\x90\x0fz\xee?'
p62
tp63
Rp64
ag4
(g8
S'\xee\xda[f\xddw\xee?'
p65
tp66
Rp67
aF1.4933891296386719
aI5000
aS'kernel = 2 degree'
p68
ag4
(g8
S'\xecQ\xb8\x1e\x85\xeb\xed?'
p69
tp70
Rp71
ag4
(g8
S'\xff\x14\x05\xc7!\xea\xed?'
p72
tp73
Rp74
aF1.0848050117492676
aI5000
aS'kernel = 2 degree'
p75
aa(lp76
g4
(g8
S'Tt$\x97\xff\x90\xee?'
p77
tp78
Rp79
ag4
(g8
S'\x12\x0c7\xb1J\x91\xee?'
p80
tp81
Rp82
aF1.8442578315734863
aI5000
aS'kernel = 2 degree'
p83
ag4
(g8
S'_\x98L\x15\x8cJ\xee?'
p84
tp85
Rp86
ag4
(g8
S'j\x7f\xa2\x8c\x96M\xee?'
p87
tp88
Rp89
aF1.4881010055541992
aI5000
aS'kernel = 2 degree'
p90
ag4
(g8
S':\x92\xcb\x7fH\xbf\xed?'
p91
tp92
Rp93
ag4
(g8
S'\x85\x8aR\xfc\xa9\xc0\xed?'
p94
tp95
Rp96
aF1.0805280208587646
aI5000
aS'kernel = 2 degree'
p97
aa(lp98
g4
(g8
S'L\xa6\nF%u\xee?'
p99
tp100
Rp101
ag4
(g8
S']"\x9d\xa6\xaer\xee?'
p102
tp103
Rp104
aF1.8334197998046875
aI5000
aS'kernel = 2 degree'
p105
ag4
(g8
S'\x93\x18\x04V\x0e-\xee?'
p106
tp107
Rp108
ag4
(g8
S'7\xa9\x07)\x16+\xee?'
p109
tp110
Rp111
aF1.4891810417175293
aI5000
aS'kernel = 2 degree'
p112
ag4
(g8
S'\xa1g\xb3\xeas\xb5\xed?'
p113
tp114
Rp115
ag4
(g8
S'\xc8\xd9\xf2\xdf\x91\xb3\xed?'
p116
tp117
Rp118
aF1.0887551307678223
aI5000
aS'kernel = 2 degree'
p119
aa(lp120
g4
(g8
S'\xaa\x82QI\x9d\x80\xee?'
p121
tp122
Rp123
ag4
(g8
S'\xee\xfc\x85\x87\xc4\x80\xee?'
p124
tp125
Rp126
aF1.837893009185791
aI5000
aS'kernel = 2 degree'
p127
ag4
(g8
S'\xd74\xef8EG\xee?'
p128
tp129
Rp130
ag4
(g8
S'\xe2\xa2\x82\xc8[G\xee?'
p131
tp132
Rp133
aF1.5195281505584717
aI5000
aS'kernel = 2 degree'
p134
ag4
(g8
S'\x19\x04V\x0e-\xb2\xed?'
p135
tp136
Rp137
ag4
(g8
S'\t\x9eA\x15\x85\xb0\xed?'
p138
tp139
Rp140
aF1.0873279571533203
aI5000
aS'kernel = 2 degree'
p141
aa(lp142
g4
(g8
S'J{\x83/L\xa6\xee?'
p143
tp144
Rp145
ag4
(g8
S'n\xf6\xe3\x80m\xa8\xee?'
p146
tp147
Rp148
aF1.8351149559020996
aI5000
aS'kernel = 2 degree'
p149
ag4
(g8
S'E\xd8\xf0\xf4JY\xee?'
p150
tp151
Rp152
ag4
(g8
S'\x06,\xe9\xe5O[\xee?'
p153
tp154
Rp155
aF1.5046298503875732
aI5000
aS'kernel = 2 degree'
p156
ag4
(g8
S'\x90\xa0\xf81\xe6\xae\xed?'
p157
tp158
Rp159
ag4
(g8
S'\xfey\xc1\xba3\xb2\xed?'
p160
tp161
Rp162
aF1.0763599872589111
aI5000
aS'kernel = 2 degree'
p163
aa(lp164
g4
(g8
S')\xed\r\xbe0\x99\xee?'
p165
tp166
Rp167
ag4
(g8
S'\x02\xf3\xe9-0\x9f\xee?'
p168
tp169
Rp170
aF1.833292007446289
aI5000
aS'kernel = 2 degree'
p171
ag4
(g8
S'\x91\xed|?5^\xee?'
p172
tp173
Rp174
ag4
(g8
S'\r4\xb7\xbd\x0ed\xee?'
p175
tp176
Rp177
aF1.4792189598083496
aI5000
aS'kernel = 2 degree'
p178
ag4
(g8
S'\xc3\xf5(\\\x8f\xc2\xed?'
p179
tp180
Rp181
ag4
(g8
S'\x19\x00\xc5H$\xcd\xed?'
p182
tp183
Rp184
aF1.1099669933319092
aI5000
aS'kernel = 2 degree'
p185
aa(lp186
g4
(g8
S'n4\x80\xb7@\x82\xee?'
p187
tp188
Rp189
ag4
(g8
S'\xbaP04\x00\x84\xee?'
p190
tp191
Rp192
aF1.829822063446045
aI5000
aS'kernel = 2 degree'
p193
ag4
(g8
S'G\x03x\x0b$(\xee?'
p194
tp195
Rp196
ag4
(g8
S'\xfe\x0c\xc0\xc6A,\xee?'
p197
tp198
Rp199
aF1.4961810111999512
aI5000
aS'kernel = 2 degree'
p200
ag4
(g8
S"\xaa`TR'\xa0\xed?"
p201
tp202
Rp203
ag4
(g8
S'm\xcf\xad|\r\xa6\xed?'
p204
tp205
Rp206
aF1.0888750553131104
aI5000
aS'kernel = 2 degree'
p207
aa(lp208
g4
(g8
S'\x1f\xf4lV}\xae\xee?'
p209
tp210
Rp211
ag4
(g8
S'\xaa\xaa\xaa\xaa\xaa\xaa\xee?'
p212
tp213
Rp214
aF1.7826929092407227
aI5000
aS'kernel = 2 degree'
p215
ag4
(g8
S'\x10X9\xb4\xc8v\xee?'
p216
tp217
Rp218
ag4
(g8
S'\xe9d$\xf8\xf8r\xee?'
p219
tp220
Rp221
aF1.4659149646759033
aI5000
aS'kernel = 2 degree'
p222
ag4
(g8
S'\xf5JY\x868\xd6\xed?'
p223
tp224
Rp225
ag4
(g8
S'\x868+?!\xce\xed?'
p226
tp227
Rp228
aF1.0448899269104004
aI5000
aS'kernel = 2 degree'
p229
aa(lp230
g4
(g8
S'\x07_\x98L\x15\x8c\xee?'
p231
tp232
Rp233
ag4
(g8
S"\x90\xc8'\x1b\x1d\x8b\xee?"
p234
tp235
Rp236
aF1.7713420391082764
aI5000
aS'kernel = 2 degree'
p237
ag4
(g8
S'E\xd8\xf0\xf4JY\xee?'
p238
tp239
Rp240
ag4
(g8
S'\xbd\xd9\x13\xb7lW\xee?'
p241
tp242
Rp243
aF1.456010103225708
aI5000
aS'kernel = 2 degree'
p244
ag4
(g8
S':\x92\xcb\x7fH\xbf\xed?'
p245
tp246
Rp247
ag4
(g8
S'd\x8d\xe2\xa0 \xbe\xed?'
p248
tp249
Rp250
aF1.054785966873169
aI5000
aS'kernel = 2 degree'
p251
aa(lp252
g4
(g8
S'\x86\xc9T\xc1\xa8\xa4\xee?'
p253
tp254
Rp255
ag4
(g8
S'\x0e\xf2\xb2\x16\xbb\xa6\xee?'
p256
tp257
Rp258
aF1.7777009010314941
aI5000
aS'kernel = 2 degree'
p259
ag4
(g8
S'V\x9f\xab\xad\xd8_\xee?'
p260
tp261
Rp262
ag4
(g8
S'\xaf\x99\xd7\x02zc\xee?'
p263
tp264
Rp265
aF1.453171968460083
aI5000
aS'kernel = 2 degree'
p266
ag4
(g8
S'\xd3\xbc\xe3\x14\x1d\xc9\xed?'
p267
tp268
Rp269
ag4
(g8
S'\xf9\xe9\xb3B_\xcb\xed?'
p270
tp271
Rp272
aF1.043795108795166
aI5000
aS'kernel = 2 degree'
p273
aa(lp274
g4
(g8
S'l\t\xf9\xa0g\xb3\xee?'
p275
tp276
Rp277
ag4
(g8
S'\xdaD\x15\xe9v\xb1\xee?'
p278
tp279
Rp280
aF1.781114101409912
aI5000
aS'kernel = 2 degree'
p281
ag4
(g8
S'\xb1Pk\x9aw\x9c\xee?'
p282
tp283
Rp284
ag4
(g8
S'<S/\x04=\x99\xee?'
p285
tp286
Rp287
aF1.4742438793182373
aI5000
aS'kernel = 2 degree'
p288
ag4
(g8
S'\xd1\x91\\\xfeC\xfa\xed?'
p289
tp290
Rp291
ag4
(g8
S'\x1d\x16\x08\xfdx\xfa\xed?'
p292
tp293
Rp294
aF1.0619590282440186
aI5000
aS'kernel = 2 degree'
p295
aa(lp296
g4
(g8
S'\xed\x9e<,\xd4\x9a\xee?'
p297
tp298
Rp299
ag4
(g8
S'\x08\xc8\xd6\x03\x9f\x9f\xee?'
p300
tp301
Rp302
aF1.7758779525756836
aI5000
aS'kernel = 2 degree'
p303
ag4
(g8
S'\xc4B\xadi\xdeq\xee?'
p304
tp305
Rp306
ag4
(g8
S'\xde\xaav\xde\xaav\xee?'
p307
tp308
Rp309
aF1.4553229808807373
aI5000
aS'kernel = 2 degree'
p310
ag4
(g8
S'\xe4\x83\x9e\xcd\xaa\xcf\xed?'
p311
tp312
Rp313
ag4
(g8
S'y\x1d\x8b)\x93\xd9\xed?'
p314
tp315
Rp316
aF1.045861005783081
aI5000
aS'kernel = 2 degree'
p317
aa(lp318
g4
(g8
S'C\xadi\xdeq\x8a\xee?'
p319
tp320
Rp321
ag4
(g8
S'\x9e\xd8\x89\x9d\xd8\x89\xee?'
p322
tp323
Rp324
aF1.7725119590759277
aI5000
aS'kernel = 2 degree'
p325
ag4
(g8
S'\x91\xed|?5^\xee?'
p326
tp327
Rp328
ag4
(g8
S'\xb5\x1d\x06E\x9d\\\xee?'
p329
tp330
Rp331
aF1.4530739784240723
aI5000
aS'kernel = 2 degree'
p332
ag4
(g8
S'\x90\xa0\xf81\xe6\xae\xed?'
p333
tp334
Rp335
ag4
(g8
S'\x1f\x8d\x8e$\x8e\xb0\xed?'
p336
tp337
Rp338
aF1.0533430576324463
aI5000
aS'kernel = 2 degree'
p339
aa(lp340
g4
(g8
S'\x86\xc9T\xc1\xa8\xa4\xee?'
p341
tp342
Rp343
ag4
(g8
S'\xf7\x13\xbd\x94&\xa1\xee?'
p344
tp345
Rp346
aF1.9656388759613037
aI5000
aS'kernel = 2 degree'
p347
ag4
(g8
S'\xac\xad\xd8_vO\xee?'
p348
tp349
Rp350
ag4
(g8
S'z\x99\xd8VSL\xee?'
p351
tp352
Rp353
aF1.4684669971466064
aI5000
aS'kernel = 2 degree'
p354
ag4
(g8
S'\\ A\xf1c\xcc\xed?'
p355
tp356
Rp357
ag4
(g8
S'B\x80\x0b\xd0\xce\xca\xed?'
p358
tp359
Rp360
aF1.0646967887878418
aI5000
aS'kernel = 2 degree'
p361
aa(lp362
g4
(g8
S'L\xa6\nF%u\xee?'
p363
tp364
Rp365
ag4
(g8
S']"\x9d\xa6\xaer\xee?'
p366
tp367
Rp368
aF1.7809700965881348
aI5000
aS'kernel = 2 degree'
p369
ag4
(g8
S'N\xd1\x91\\\xfeC\xee?'
p370
tp371
Rp372
ag4
(g8
S'\xbe\n\x90\x14\xf6?\xee?'
p373
tp374
Rp375
aF1.453476905822754
aI5000
aS'kernel = 2 degree'
p376
ag4
(g8
S'\x19\x04V\x0e-\xb2\xed?'
p377
tp378
Rp379
ag4
(g8
S'*\xa5\xf5\xa4w\xb1\xed?'
p380
tp381
Rp382
aF1.0398719310760498
aI5000
aS'kernel = 2 degree'
p383
aa(lp384
g4
(g8
S'Tt$\x97\xff\x90\xee?'
p385
tp386
Rp387
ag4
(g8
S'\x12\x0c7\xb1J\x91\xee?'
p388
tp389
Rp390
aF1.7819619178771973
aI5000
aS'kernel = 2 degree'
p391
ag4
(g8
S'ffffff\xee?'
p392
tp393
Rp394
ag4
(g8
S'\x1c+\xa9tag\xee?'
p395
tp396
Rp397
aF1.4591197967529297
aI5000
aS'kernel = 2 degree'
p398
ag4
(g8
S'\xf5JY\x868\xd6\xed?'
p399
tp400
Rp401
ag4
(g8
S'\xc6\xdb\xe2\x8f\xc9\xdc\xed?'
p402
tp403
Rp404
aF1.064723014831543
aI5000
aS'kernel = 2 degree'
p405
aa(lp406
g4
(g8
S'L\xa6\nF%u\xee?'
p407
tp408
Rp409
ag4
(g8
S']"\x9d\xa6\xaer\xee?'
p410
tp411
Rp412
aF1.781486988067627
aI5000
aS'kernel = 2 degree'
p413
ag4
(g8
S'X\xca2\xc4\xb1.\xee?'
p414
tp415
Rp416
ag4
(g8
S'\xc6;\xcb\x7f\xb2+\xee?'
p417
tp418
Rp419
aF1.6551570892333984
aI5000
aS'kernel = 2 degree'
p420
ag4
(g8
S'\xe4\x83\x9e\xcd\xaa\xcf\xed?'
p421
tp422
Rp423
ag4
(g8
S'\x1b\xe5\xdc\xb4Q\xce\xed?'
p424
tp425
Rp426
aF1.0609500408172607
aI5000
aS'kernel = 2 degree'
p427
aa(lp428
g4
(g8
S')\xed\r\xbe0\x99\xee?'
p429
tp430
Rp431
ag4
(g8
S'\xe9Moz\xd3\x9b\xee?'
p432
tp433
Rp434
aF1.77882981300354
aI5000
aS'kernel = 2 degree'
p435
ag4
(g8
S'\x91\xed|?5^\xee?'
p436
tp437
Rp438
ag4
(g8
S'\xb18\xb5\x13\x97b\xee?'
p439
tp440
Rp441
aF1.4541418552398682
aI5000
aS'kernel = 2 degree'
p442
ag4
(g8
S"R'\xa0\x89\xb0\xe1\xed?"
p443
tp444
Rp445
ag4
(g8
S'\xe0\xe7\x9a\x19\xbe\xe3\xed?'
p446
tp447
Rp448
aF1.06331205368042
aI5000
aS'kernel = 2 degree'
p449
aa(lp450
g4
(g8
S')\xed\r\xbe0\x99\xee?'
p451
tp452
Rp453
ag4
(g8
S'7\x1f\x94x\x8c\x9a\xee?'
p454
tp455
Rp456
aF1.7665369510650635
aI5000
aS'kernel = 2 degree'
p457
ag4
(g8
S'\x00\x91~\xfb:p\xee?'
p458
tp459
Rp460
ag4
(g8
S'x\x1dR\xe8>s\xee?'
p461
tp462
Rp463
aF1.467871904373169
aI5000
aS'kernel = 2 degree'
p464
ag4
(g8
S'\x9f<,\xd4\x9a\xe6\xed?'
p465
tp466
Rp467
ag4
(g8
S'\xae\xde\xea\xad\xde\xea\xed?'
p468
tp469
Rp470
aF1.0558099746704102
aI5000
aS'kernel = 2 degree'
p471
aa(lp472
g4
(g8
S'C\xadi\xdeq\x8a\xee?'
p473
tp474
Rp475
ag4
(g8
S'\xa35\xfd\xe6\xf9\x86\xee?'
p476
tp477
Rp478
aF1.7826261520385742
aI5000
aS'kernel = 2 degree'
p479
ag4
(g8
S'\x1aQ\xda\x1b|a\xee?'
p480
tp481
Rp482
ag4
(g8
S'\x12\x0f\x13p\xb4\\\xee?'
p483
tp484
Rp485
aF1.4457838535308838
aI5000
aS'kernel = 2 degree'
p486
ag4
(g8
S'KY\x868\xd6\xc5\xed?'
p487
tp488
Rp489
ag4
(g8
S'(\x92=*\x85\xc6\xed?'
p490
tp491
Rp492
aF1.0538289546966553
aI5000
aS'kernel = 2 degree'
p493
aa(lp494
g4
(g8
S'\xb8\x1e\x85\xebQ\xb8\xee?'
p495
tp496
Rp497
ag4
(g8
S'\x84\x8a\xc6\xcf\xa9\xb7\xee?'
p498
tp499
Rp500
aF1.762139081954956
aI5000
aS'kernel = 2 degree'
p501
ag4
(g8
S'\xa2\xb47\xf8\xc2d\xee?'
p502
tp503
Rp504
ag4
(g8
S':\xa4\xa7H{f\xee?'
p505
tp506
Rp507
aF1.4426369667053223
aI5000
aS'kernel = 2 degree'
p508
ag4
(g8
S'\xa85\xcd;N\xd1\xed?'
p509
tp510
Rp511
ag4
(g8
S'\x14\xcc\x8d\xack\xd3\xed?'
p512
tp513
Rp514
aF1.0379788875579834
aI5000
aS'kernel = 2 degree'
p515
aa(lp516
g4
(g8
S'\xc2\x17&S\x05\xa3\xee?'
p517
tp518
Rp519
ag4
(g8
S'I\xfa\x00cD\xa1\xee?'
p520
tp521
Rp522
aF1.7731528282165527
aI5000
aS'kernel = 2 degree'
p523
ag4
(g8
S'\xc4B\xadi\xdeq\xee?'
p524
tp525
Rp526
ag4
(g8
S'{"\xe0\xb0\xfdp\xee?'
p527
tp528
Rp529
aF1.6296131610870361
aI5000
aS'kernel = 2 degree'
p530
ag4
(g8
S'\x17\xd9\xce\xf7S\xe3\xed?'
p531
tp532
Rp533
ag4
(g8
S'K\x1a{R\xa0\xdf\xed?'
p534
tp535
Rp536
aF1.049942970275879
aI5000
aS'kernel = 2 degree'
p537
aa(lp538
g4
(g8
S'\xe5\xd0"\xdb\xf9~\xee?'
p539
tp540
Rp541
ag4
(g8
S'\x9f\x11"A\x0b\x81\xee?'
p542
tp543
Rp544
aF1.7656378746032715
aI5000
aS'kernel = 2 degree'
p545
ag4
(g8
S'N\xd1\x91\\\xfeC\xee?'
p546
tp547
Rp548
ag4
(g8
S'X{\x15\xd2\x8dF\xee?'
p549
tp550
Rp551
aF1.4438421726226807
aI5000
aS'kernel = 2 degree'
p552
ag4
(g8
S'v\xe0\x9c\x11\xa5\xbd\xed?'
p553
tp554
Rp555
ag4
(g8
S'\xd5Hy\x05|\xc3\xed?'
p556
tp557
Rp558
aF1.0369718074798584
aI5000
aS'kernel = 2 degree'
p559
aa(lp560
g4
(g8
S'\x1aQ\xda\x1b|a\xee?'
p561
tp562
Rp563
ag4
(g8
S'\xfc0\x9ev\x10b\xee?'
p564
tp565
Rp566
aF1.7647550106048584
aI5000
aS'kernel = 2 degree'
p567
ag4
(g8
S'\xcff\xd5\xe7j+\xee?'
p568
tp569
Rp570
ag4
(g8
S'\x8c\x10\x03\x1d\x8a,\xee?'
p571
tp572
Rp573
aF1.4424760341644287
aI5000
aS'kernel = 2 degree'
p574
ag4
(g8
S'o\x12\x83\xc0\xca\xa1\xed?'
p575
tp576
Rp577
ag4
(g8
S'\x03u\xcf\x82\x00\xa3\xed?'
p578
tp579
Rp580
aF1.037416934967041
aI5000
aS'kernel = 2 degree'
p581
aa(lp582
g4
(g8
S'2\xe6\xae%\xe4\x83\xee?'
p583
tp584
Rp585
ag4
(g8
S'cw}\xbb\xcd\x87\xee?'
p586
tp587
Rp588
aF1.7493901252746582
aI5000
aS'kernel = 2 degree'
p589
ag4
(g8
S'\xac\xad\xd8_vO\xee?'
p590
tp591
Rp592
ag4
(g8
S'\xc9\xd7\x12z\x15T\xee?'
p593
tp594
Rp595
aF1.4485809803009033
aI5000
aS'kernel = 2 degree'
p596
ag4
(g8
S'\xe4\x83\x9e\xcd\xaa\xcf\xed?'
p597
tp598
Rp599
ag4
(g8
S'\xb7\x17%Go\xd5\xed?'
p600
tp601
Rp602
aF1.0401380062103271
aI5000
aS'kernel = 2 degree'
p603
aa(lp604
g4
(g8
S'\x99\xbb\x96\x90\x0fz\xee?'
p605
tp606
Rp607
ag4
(g8
S'E\xe1)\x83\x8e\x81\xee?'
p608
tp609
Rp610
aF1.748885154724121
aI5000
aS'kernel = 2 degree'
p611
ag4
(g8
S'N\xd1\x91\\\xfeC\xee?'
p612
tp613
Rp614
ag4
(g8
S'}\x9a\xb2\xd7KM\xee?'
p615
tp616
Rp617
aF1.4389288425445557
aI5000
aS'kernel = 2 degree'
p618
ag4
(g8
S'\xa1g\xb3\xeas\xb5\xed?'
p619
tp620
Rp621
ag4
(g8
S'\xd4H\xdb\x1d<\xbe\xed?'
p622
tp623
Rp624
aF1.0530920028686523
aI5000
aS'kernel = 2 degree'
p625
aa(lp626
g4
(g8
S'J{\x83/L\xa6\xee?'
p627
tp628
Rp629
ag4
(g8
S'\x0c\xea\xd5p\xbf\xa0\xee?'
p630
tp631
Rp632
aF1.7708399295806885
aI5000
aS'kernel = 2 degree'
p633
ag4
(g8
S'\t\x8a\x1fc\xeeZ\xee?'
p634
tp635
Rp636
ag4
(g8
S'L\xaf\x1e\x10\xbbU\xee?'
p637
tp638
Rp639
aF1.6343369483947754
aI5000
aS'kernel = 2 degree'
p640
ag4
(g8
S'\xfeC\xfa\xed\xeb\xc0\xed?'
p641
tp642
Rp643
ag4
(g8
S'1\x1a\x1e\xbd\x05\xb6\xed?'
p644
tp645
Rp646
aF1.040349006652832
aI5000
aS'kernel = 2 degree'
p647
aa(lp648
g4
(g8
S'\xed\x9e<,\xd4\x9a\xee?'
p649
tp650
Rp651
ag4
(g8
S'G\xadx\x0f=\x98\xee?'
p652
tp653
Rp654
aF1.7845699787139893
aI5000
aS'kernel = 2 degree'
p655
ag4
(g8
S'\t\x8a\x1fc\xeeZ\xee?'
p656
tp657
Rp658
ag4
(g8
S'\x90\xc1\xda\x8f\x97V\xee?'
p659
tp660
Rp661
aF1.4549708366394043
aI5000
aS'kernel = 2 degree'
p662
ag4
(g8
S'\xd3\xbc\xe3\x14\x1d\xc9\xed?'
p663
tp664
Rp665
ag4
(g8
S'\x94\xf6b\xa4\xec\xc2\xed?'
p666
tp667
Rp668
aF1.0563251972198486
aI5000
aS'kernel = 2 degree'
p669
aa(lp670
g4
(g8
S'\x99\xbb\x96\x90\x0fz\xee?'
p671
tp672
Rp673
ag4
(g8
S'E\xe1)\x83\x8e\x81\xee?'
p674
tp675
Rp676
aF1.9413769245147705
aI5000
aS'kernel = 2 degree'
p677
ag4
(g8
S'\x8a\x1fc\xeeZB\xee?'
p678
tp679
Rp680
ag4
(g8
S'\xcb\xc2\x9f\x03\xe4I\xee?'
p681
tp682
Rp683
aF1.4479601383209229
aI5000
aS'kernel = 2 degree'
p684
ag4
(g8
S'\xf7u\xe0\x9c\x11\xa5\xed?'
p685
tp686
Rp687
ag4
(g8
S'.\xd7\xe2X\xf6\xaf\xed?'
p688
tp689
Rp690
aF1.0404479503631592
aI5000
aS'kernel = 2 degree'
p691
aa(lp692
g4
(g8
S'\x10X9\xb4\xc8v\xee?'
p693
tp694
Rp695
ag4
(g8
S'3\xbf\x9e\x00"s\xee?'
p696
tp697
Rp698
aF1.790435791015625
aI5000
aS'kernel = 2 degree'
p699
ag4
(g8
S'\x1aQ\xda\x1b|a\xee?'
p700
tp701
Rp702
ag4
(g8
S']\x00\xa7\xc3\x0e^\xee?'
p703
tp704
Rp705
aF1.459204912185669
aI5000
aS'kernel = 2 degree'
p706
ag4
(g8
S'\xe4\x83\x9e\xcd\xaa\xcf\xed?'
p707
tp708
Rp709
ag4
(g8
S'\xe5\x83\x9e\xcd\xaa\xcf\xed?'
p710
tp711
Rp712
aF1.0530169010162354
aI5000
aS'kernel = 2 degree'
p713
aa(lp714
g4
(g8
S'\x86\xc9T\xc1\xa8\xa4\xee?'
p715
tp716
Rp717
ag4
(g8
S'Asyt\x8d\xa7\xee?'
p718
tp719
Rp720
aF1.7932701110839844
aI5000
aS'kernel = 2 degree'
p721
ag4
(g8
S'\x10X9\xb4\xc8v\xee?'
p722
tp723
Rp724
ag4
(g8
S')\x92W\x97py\xee?'
p725
tp726
Rp727
aF1.4614109992980957
aI5000
aS'kernel = 2 degree'
p728
ag4
(g8
S'm\xe7\xfb\xa9\xf1\xd2\xed?'
p729
tp730
Rp731
ag4
(g8
S'\x9e\x06\xe52D\xd6\xed?'
p732
tp733
Rp734
aF1.045922040939331
aI5000
aS'kernel = 2 degree'
p735
aa(lp736
g4
(g8
S'\x07_\x98L\x15\x8c\xee?'
p737
tp738
Rp739
ag4
(g8
S'P_\xc0\xce\xf6\x8a\xee?'
p740
tp741
Rp742
aF1.7686359882354736
aI5000
aS'kernel = 2 degree'
p743
ag4
(g8
S'\xcd;N\xd1\x91\\\xee?'
p744
tp745
Rp746
ag4
(g8
S'w~w\xd9;\\\xee?'
p747
tp748
Rp749
aF1.4651200771331787
aI5000
aS'kernel = 2 degree'
p750
ag4
(g8
S'\x98n\x12\x83\xc0\xca\xed?'
p751
tp752
Rp753
ag4
(g8
S'\xf4\xc0\xbbM\xe4\xcc\xed?'
p754
tp755
Rp756
aF1.044631004333496
aI5000
aS'kernel = 2 degree'
p757
aa(lp758
g4
(g8
S'L\xa6\nF%u\xee?'
p759
tp760
Rp761
ag4
(g8
S'|\x8bW\xd5Dp\xee?'
p762
tp763
Rp764
aF1.7557299137115479
aI5000
aS'kernel = 2 degree'
p765
ag4
(g8
S'\x83QI\x9d\x80&\xee?'
p766
tp767
Rp768
ag4
(g8
S'\xebG\xb0\xc43"\xee?'
p769
tp770
Rp771
aF1.436272144317627
aI5000
aS'kernel = 2 degree'
p772
ag4
(g8
S'"\xfd\xf6u\xe0\x9c\xed?'
p773
tp774
Rp775
ag4
(g8
S'`\xd5\xab\x0e\x8f\x99\xed?'
p776
tp777
Rp778
aF1.0463261604309082
aI5000
aS'kernel = 2 degree'
p779
aa(lp780
g4
(g8
S'\x1aQ\xda\x1b|a\xee?'
p781
tp782
Rp783
ag4
(g8
S'\xfc0\x9ev\x10b\xee?'
p784
tp785
Rp786
aF1.7669579982757568
aI5000
aS'kernel = 2 degree'
p787
ag4
(g8
S'\x0b\xb5\xa6y\xc7)\xee?'
p788
tp789
Rp790
ag4
(g8
S've\xb2\x8b\xdf)\xee?'
p791
tp792
Rp793
aF1.4540109634399414
aI5000
aS'kernel = 2 degree'
p794
ag4
(g8
S'\xf7u\xe0\x9c\x11\xa5\xed?'
p795
tp796
Rp797
ag4
(g8
S'\x81%\x89\xb2E\xa6\xed?'
p798
tp799
Rp800
aF1.045516014099121
aI5000
aS'kernel = 2 degree'
p801
aa(lp802
g4
(g8
S'\x07_\x98L\x15\x8c\xee?'
p803
tp804
Rp805
ag4
(g8
S'P_\xc0\xce\xf6\x8a\xee?'
p806
tp807
Rp808
aF1.9634521007537842
aI5000
aS'kernel = 2 degree'
p809
ag4
(g8
S'\xc6m4\x80\xb7@\xee?'
p810
tp811
Rp812
ag4
(g8
S'\x04\xe4\xb5\xe1D@\xee?'
p813
tp814
Rp815
aF1.4525408744812012
aI5000
aS'kernel = 2 degree'
p816
ag4
(g8
S'\x85|\xd0\xb3Y\xf5\xed?'
p817
tp818
Rp819
ag4
(g8
S'\x1fJ\xcfb\xef\xf2\xed?'
p820
tp821
Rp822
aF1.039928913116455
aI5000
aS'kernel = 2 degree'
p823
aa(lp824
g4
(g8
S'\x86\xc9T\xc1\xa8\xa4\xee?'
p825
tp826
Rp827
ag4
(g8
S'Asyt\x8d\xa7\xee?'
p828
tp829
Rp830
aF1.73353910446167
aI5000
aS'kernel = 2 degree'
p831
ag4
(g8
S'4\x116<\xbdR\xee?'
p832
tp833
Rp834
ag4
(g8
S'\xee\xd2\x95\xd6{V\xee?'
p835
tp836
Rp837
aF1.4146790504455566
aI5000
aS'kernel = 2 degree'
p838
ag4
(g8
S' \xd2o_\x07\xce\xed?'
p839
tp840
Rp841
ag4
(g8
S'$\x9f\x8a\x89n\xcb\xed?'
p842
tp843
Rp844
aF1.0237929821014404
aI5000
aS'kernel = 2 degree'
p845
aa(lp846
g4
(g8
S'l\t\xf9\xa0g\xb3\xee?'
p847
tp848
Rp849
ag4
(g8
S'{\xf4\x9f\x83\x00\xb2\xee?'
p850
tp851
Rp852
aF1.7304730415344238
aI5000
aS'kernel = 2 degree'
p853
ag4
(g8
S'n4\x80\xb7@\x82\xee?'
p854
tp855
Rp856
ag4
(g8
S'\nI\x90}\x90\x81\xee?'
p857
tp858
Rp859
aF1.41886305809021
aI5000
aS'kernel = 2 degree'
p860
ag4
(g8
S'\xc1\xca\xa1E\xb6\xf3\xed?'
p861
tp862
Rp863
ag4
(g8
S'\x80\x19\x05\x01\xcd\xf5\xed?'
p864
tp865
Rp866
aF1.011124849319458
aI5000
aS'kernel = 2 degree'
p867
aa(lp868
g4
(g8
S'\x07_\x98L\x15\x8c\xee?'
p869
tp870
Rp871
ag4
(g8
S"\x90\xc8'\x1b\x1d\x8b\xee?"
p872
tp873
Rp874
aF1.7123420238494873
aI5000
aS'kernel = 2 degree'
p875
ag4
(g8
S'\xac\xad\xd8_vO\xee?'
p876
tp877
Rp878
ag4
(g8
S'\xc0\xe6\xe4\xfbkN\xee?'
p879
tp880
Rp881
aF1.4095160961151123
aI5000
aS'kernel = 2 degree'
p882
ag4
(g8
S't\xb5\x15\xfb\xcb\xee\xed?'
p883
tp884
Rp885
ag4
(g8
S'\x83.\xb97\x1d\xef\xed?'
p886
tp887
Rp888
aF1.008803129196167
aI5000
aS'kernel = 2 degree'
p889
aa(lp890
g4
(g8
S'\xaa\x82QI\x9d\x80\xee?'
p891
tp892
Rp893
ag4
(g8
S'h\x94\xf8\x19%~\xee?'
p894
tp895
Rp896
aF1.7187268733978271
aI5000
aS'kernel = 2 degree'
p897
ag4
(g8
S'N\xd1\x91\\\xfeC\xee?'
p898
tp899
Rp900
ag4
(g8
S'\nm\xef\xbe\x03C\xee?'
p901
tp902
Rp903
aF1.4102070331573486
aI5000
aS'kernel = 2 degree'
p904
ag4
(g8
S'\x92\xcb\x7fH\xbf}\xed?'
p905
tp906
Rp907
ag4
(g8
S'\x9b\xdf\xd4u\x07\x7f\xed?'
p908
tp909
Rp910
aF1.011672019958496
aI5000
aS'kernel = 2 degree'
p911
aa(lp912
g4
(g8
S'u\x02\x9a\x08\x1b\x9e\xee?'
p913
tp914
Rp915
ag4
(g8
S'\xba+P\xe8)\xa2\xee?'
p916
tp917
Rp918
aF1.7275631427764893
aI5000
aS'kernel = 2 degree'
p919
ag4
(g8
S'E\xd8\xf0\xf4JY\xee?'
p920
tp921
Rp922
ag4
(g8
S'\xd3js\xc2\xcc^\xee?'
p923
tp924
Rp925
aF1.4103939533233643
aI5000
aS'kernel = 2 degree'
p926
ag4
(g8
S'c\xeeZB>\xe8\xed?'
p927
tp928
Rp929
ag4
(g8
S'=\x05\xe5)U\xeb\xed?'
p930
tp931
Rp932
aF1.0238080024719238
aI5000
aS'kernel = 2 degree'
p933
aa(lp934
g4
(g8
S'\xbaI\x0c\x02+\x87\xee?'
p935
tp936
Rp937
ag4
(g8
S'<KQ\xed^\x8c\xee?'
p938
tp939
Rp940
aF1.7107670307159424
aI5000
aS'kernel = 2 degree'
p941
ag4
(g8
S'\xf8\xc2d\xaa`T\xee?'
p942
tp943
Rp944
ag4
(g8
S'\x92M\xc1\\]Y\xee?'
p945
tp946
Rp947
aF1.403980016708374
aI5000
aS'kernel = 2 degree'
p948
ag4
(g8
S'\x98n\x12\x83\xc0\xca\xed?'
p949
tp950
Rp951
ag4
(g8
S'v|\x90\xa5\xf1\xd5\xed?'
p952
tp953
Rp954
aF1.0187737941741943
aI5000
aS'kernel = 2 degree'
p955
aa(lp956
g4
(g8
S'\xaa\x82QI\x9d\x80\xee?'
p957
tp958
Rp959
ag4
(g8
S'uV"0a\x81\xee?'
p960
tp961
Rp962
aF1.7054181098937988
aI5000
aS'kernel = 2 degree'
p963
ag4
(g8
S'=\n\xd7\xa3p=\xee?'
p964
tp965
Rp966
ag4
(g8
S'\x139=\xb4\x87=\xee?'
p967
tp968
Rp969
aF1.4106090068817139
aI5000
aS'kernel = 2 degree'
p970
ag4
(g8
S'\x08=\x9bU\x9f\xab\xed?'
p971
tp972
Rp973
ag4
(g8
S'\xb6u\x97\xf8\xbe\xa8\xed?'
p974
tp975
Rp976
aF1.023003101348877
aI5000
aS'kernel = 2 degree'
p977
aa(lp978
g4
(g8
S'\x7f\xfb:p\xce\x88\xee?'
p979
tp980
Rp981
ag4
(g8
S'I\x16)\xc6\x94\x88\xee?'
p982
tp983
Rp984
aF1.7142770290374756
aI5000
aS'kernel = 2 degree'
p985
ag4
(g8
S'N\xd1\x91\\\xfeC\xee?'
p986
tp987
Rp988
ag4
(g8
S'\xff19 %E\xee?'
p989
tp990
Rp991
aF1.4102880954742432
aI5000
aS'kernel = 2 degree'
p992
ag4
(g8
S'\\ A\xf1c\xcc\xed?'
p993
tp994
Rp995
ag4
(g8
S'B\x80\x0b\xd0\xce\xca\xed?'
p996
tp997
Rp998
aF1.0180931091308594
aI5000
aS'kernel = 2 degree'
p999
aa(lp1000
g4
(g8
S'C\xadi\xdeq\x8a\xee?'
p1001
tp1002
Rp1003
ag4
(g8
S'\xa74\xf4\x8f\xd7\x7f\xee?'
p1004
tp1005
Rp1006
aF1.6987030506134033
aI5000
aS'kernel = 2 degree'
p1007
ag4
(g8
S'\x1c|a2U0\xee?'
p1008
tp1009
Rp1010
ag4
(g8
S'a\xd4\xbf\x179%\xee?'
p1011
tp1012
Rp1013
aF1.4013240337371826
aI5000
aS'kernel = 2 degree'
p1014
ag4
(g8
S'\xb2.n\xa3\x01\xbc\xed?'
p1015
tp1016
Rp1017
ag4
(g8
S'\xa2\x87&m\xc5\xb3\xed?'
p1018
tp1019
Rp1020
aF1.0221400260925293
aI5000
aS'kernel = 2 degree'
p1021
aa(lp1022
g4
(g8
S'l\t\xf9\xa0g\xb3\xee?'
p1023
tp1024
Rp1025
ag4
(g8
S'\xc4\xea\xc0^b\xb0\xee?'
p1026
tp1027
Rp1028
aF1.7236449718475342
aI5000
aS'kernel = 2 degree'
p1029
ag4
(g8
S'\xcd;N\xd1\x91\\\xee?'
p1030
tp1031
Rp1032
ag4
(g8
S'\xd2m\xc4\xa8\xa5W\xee?'
p1033
tp1034
Rp1035
aF1.4322941303253174
aI5000
aS'kernel = 2 degree'
p1036
ag4
(g8
S"'\xa0\x89\xb0\xe1\xe9\xed?"
p1037
tp1038
Rp1039
ag4
(g8
S'\xf9\r\xe8\xaa\xf3\xe7\xed?'
p1040
tp1041
Rp1042
aF1.0276820659637451
aI5000
aS'kernel = 2 degree'
p1043
aa(lp1044
g4
(g8
S'\xfee\xf7\xe4a\xa1\xee?'
p1045
tp1046
Rp1047
ag4
(g8
S'L%8\xc5\xfd\xa4\xee?'
p1048
tp1049
Rp1050
aF1.976045846939087
aI5000
aS'kernel = 2 degree'
p1051
ag4
(g8
S'\xbaI\x0c\x02+\x87\xee?'
p1052
tp1053
Rp1054
ag4
(g8
S'\xb4\x06\xee\x98N\x8a\xee?'
p1055
tp1056
Rp1057
aF1.6717209815979004
aI5000
aS'kernel = 2 degree'
p1058
ag4
(g8
S'c\xeeZB>\xe8\xed?'
p1059
tp1060
Rp1061
ag4
(g8
S'\x8a\x8dH\xe5{\xea\xed?'
p1062
tp1063
Rp1064
aF1.2623100280761719
aI5000
aS'kernel = 2 degree'
p1065
aa(lp1066
g4
(g8
S'\xaa\x82QI\x9d\x80\xee?'
p1067
tp1068
Rp1069
ag4
(g8
S'\xa1\xdf\x80\xae:\x7f\xee?'
p1070
tp1071
Rp1072
aF1.956935167312622
aI5000
aS'kernel = 2 degree'
p1073
ag4
(g8
S'\xe7\xfb\xa9\xf1\xd2M\xee?'
p1074
tp1075
Rp1076
ag4
(g8
S'K?\xd2\x83\nM\xee?'
p1077
tp1078
Rp1079
aF1.6346981525421143
aI5000
aS'kernel = 2 degree'
p1080
ag4
(g8
S'\xa1g\xb3\xeas\xb5\xed?'
p1081
tp1082
Rp1083
ag4
(g8
S'z\xb1\xf3\x14j\xb9\xed?'
p1084
tp1085
Rp1086
aF1.254276990890503
aI5000
aS'kernel = 2 degree'
p1087
aa(lp1088
g4
(g8
S'n4\x80\xb7@\x82\xee?'
p1089
tp1090
Rp1091
ag4
(g8
S'\xbaP04\x00\x84\xee?'
p1092
tp1093
Rp1094
aF1.9524919986724854
aI5000
aS'kernel = 2 degree'
p1095
ag4
(g8
S'\xb5\xa6y\xc7):\xee?'
p1096
tp1097
Rp1098
ag4
(g8
S'A+\xa2\xab\xf5<\xee?'
p1099
tp1100
Rp1101
aF1.663450002670288
aI5000
aS'kernel = 2 degree'
p1102
ag4
(g8
S'e\x19\xe2X\x17\xb7\xed?'
p1103
tp1104
Rp1105
ag4
(g8
S'\xd6=\x85\x87t\xbd\xed?'
p1106
tp1107
Rp1108
aF1.268867015838623
aI5000
aS'kernel = 2 degree'
p1109
aas.