(dp0
S'sat'
p1
(lp2
(lp3
cnumpy.core.multiarray
scalar
p4
(cnumpy
dtype
p5
(S'f8'
p6
I0
I1
tp7
Rp8
(I3
S'<'
p9
NNNI-1
I-1
I0
tp10
bS'b\xdfdV\xd9Z\xed?'
p11
tp12
Rp13
ag4
(g8
S'\xaa07\xb8t\xe6\xec?'
p14
tp15
Rp16
aF0.7558670043945312
aI1609
aS'kernel = 0 degree'
p17
ag4
(g8
S'/\x11\xf4\xf2\xc1U\xed?'
p18
tp19
Rp20
ag4
(g8
S'\xb8#\xee\x88;\xe2\xec?'
p21
tp22
Rp23
aF0.977726936340332
aI1609
aS'kernel = 0 degree'
p24
ag4
(g8
S'\xfc;O\x9e57\xed?'
p25
tp26
Rp27
ag4
(g8
S'\xb7\xdcr\xcb-\xb7\xec?'
p28
tp29
Rp30
aF0.5015029907226562
aI1609
aS'kernel = 0 degree'
p31
aa(lp32
g4
(g8
S'\x96\xc9\xa5~\xc4\xc5\xed?'
p33
tp34
Rp35
ag4
(g8
S'I(\x96\xd2\xb3o\xed?'
p36
tp37
Rp38
aF0.6309139728546143
aI1609
aS'kernel = 0 degree'
p39
ag4
(g8
S'\xc9\x97\x16\xe2\xdb\xca\xed?'
p40
tp41
Rp42
ag4
(g8
S's\x9dB\xd7)t\xed?'
p43
tp44
Rp45
aF0.5539979934692383
aI1609
aS'kernel = 0 degree'
p46
ag4
(g8
S'b\xed\xcc8\xc3\x8d\xed?'
p47
tp48
Rp49
ag4
(g8
S'\x87{\xa11\xd01\xed?'
p50
tp51
Rp52
aF0.2899749279022217
aI1609
aS'kernel = 0 degree'
p53
aa(lp54
g4
(g8
S'\x96\xc2q\x8dO\xac\xed?'
p55
tp56
Rp57
ag4
(g8
S'\xb8C\x18\xcf\xc3?\xed?'
p58
tp59
Rp60
aF0.6273641586303711
aI1609
aS'kernel = 0 degree'
p61
ag4
(g8
S'/&\x90\xc6 \xa2\xed?'
p62
tp63
Rp64
ag4
(g8
S'S\xc3[\xda\xde6\xed?'
p65
tp66
Rp67
aF0.3232569694519043
aI1609
aS'kernel = 0 degree'
p68
ag4
(g8
S'\x95\xa6\xa1\xc8{F\xed?'
p69
tp70
Rp71
ag4
(g8
S'v4\x81;S\xd3\xec?'
p72
tp73
Rp74
aF0.4110219478607178
aI1609
aS'kernel = 0 degree'
p75
aa(lp76
g4
(g8
S'c\xf4\x00*8\xa7\xed?'
p77
tp78
Rp79
ag4
(g8
S'r\xee\xb3\x0b\x88M\xed?'
p80
tp81
Rp82
aF0.6206991672515869
aI1609
aS'kernel = 0 degree'
p83
ag4
(g8
S'\x96\xc2q\x8dO\xac\xed?'
p84
tp85
Rp86
ag4
(g8
S'\xce\x8b\x1c\xbc\xe4R\xed?'
p87
tp88
Rp89
aF0.577124834060669
aI1609
aS'kernel = 0 degree'
p90
ag4
(g8
S'b\xed\xcc8\xc3\x8d\xed?'
p91
tp92
Rp93
ag4
(g8
S'-\x1d\xdb\xd2\xb1-\xed?'
p94
tp95
Rp96
aF0.29088401794433594
aI1609
aS'kernel = 0 degree'
p97
aa(lp98
g4
(g8
S'0-\xc4\xb7\x95\xbb\xed?'
p99
tp100
Rp101
ag4
(g8
S'\xa0\x8a4}PX\xed?'
p102
tp103
Rp104
aF0.622528076171875
aI1609
aS'kernel = 0 degree'
p105
ag4
(g8
S'c\xfb4\x1b\xad\xc0\xed?'
p106
tp107
Rp108
ag4
(g8
S'\x11\xbae\xe0\xd0[\xed?'
p109
tp110
Rp111
aF0.4944021701812744
aI1609
aS'kernel = 0 degree'
p112
ag4
(g8
S'0-\xc4\xb7\x95\xbb\xed?'
p113
tp114
Rp115
ag4
(g8
S'\xa4\xf5\x02\xb69]\xed?'
p116
tp117
Rp118
aF0.28433680534362793
aI1609
aS'kernel = 0 degree'
p119
aa(lp120
g4
(g8
S'\xc9\x89\xae\xff\xf1\x97\xed?'
p121
tp122
Rp123
ag4
(g8
S'\xfe.\xb8,L"\xed?'
p124
tp125
Rp126
aF0.5367169380187988
aI1609
aS'kernel = 0 degree'
p127
ag4
(g8
S'\xfcP\xebq\x94\x83\xed?'
p128
tp129
Rp130
ag4
(g8
S'\n\x9d\xb2\xd0)\x0b\xed?'
p131
tp132
Rp133
aF0.3811178207397461
aI1609
aS'kernel = 0 degree'
p134
ag4
(g8
S'b\xe6\x98GNt\xed?'
p135
tp136
Rp137
ag4
(g8
S'\xfd\xb7(L\xda\xfb\xec?'
p138
tp139
Rp140
aF0.2827279567718506
aI1609
aS'kernel = 0 degree'
p141
aa(lp142
g4
(g8
S'c\xfb4\x1b\xad\xc0\xed?'
p143
tp144
Rp145
ag4
(g8
S'\xb6-\xfd^\xd7W\xed?'
p146
tp147
Rp148
aF0.3697359561920166
aI1609
aS'kernel = 0 degree'
p149
ag4
(g8
S'/\x1f\\\xd5\xab\x88\xed?'
p150
tp151
Rp152
ag4
(g8
S'^\xb9P\xc8\x88\x1a\xed?'
p153
tp154
Rp155
aF0.32462596893310547
aI1609
aS'kernel = 0 degree'
p156
ag4
(g8
S'/\x1f\\\xd5\xab\x88\xed?'
p157
tp158
Rp159
ag4
(g8
S'\xe2`\xc4_\xb1\x1c\xed?'
p160
tp161
Rp162
aF0.2874569892883301
aI1609
aS'kernel = 0 degree'
p163
aa(lp164
g4
(g8
S'\xc9\x97\x16\xe2\xdb\xca\xed?'
p165
tp166
Rp167
ag4
(g8
S'`\xdd\xfe\xd5\xed_\xed?'
p168
tp169
Rp170
aF0.3653678894042969
aI1609
aS'kernel = 0 degree'
p171
ag4
(g8
S'c\xfb4\x1b\xad\xc0\xed?'
p172
tp173
Rp174
ag4
(g8
S'E+q[\xd4T\xed?'
p175
tp176
Rp177
aF0.33008909225463867
aI1609
aS'kernel = 0 degree'
p178
ag4
(g8
S'\xfcP\xebq\x94\x83\xed?'
p179
tp180
Rp181
ag4
(g8
S';\xdc\xd8\x16\xea\x12\xed?'
p182
tp183
Rp184
aF0.29444098472595215
aI1609
aS'kernel = 0 degree'
p185
aa(lp186
g4
(g8
S'\x96\xd0\xd9o9\xdf\xed?'
p187
tp188
Rp189
ag4
(g8
S'\x96\xe7}\x11 \x90\xed?'
p190
tp191
Rp192
aF0.36556386947631836
aI1609
aS'kernel = 0 degree'
p193
ag4
(g8
S'\xfdl\xbb6h\xe9\xed?'
p194
tp195
Rp196
ag4
(g8
S'\x88L\x8cV\xc9\x9b\xed?'
p197
tp198
Rp199
aF0.48247313499450684
aI1609
aS'kernel = 0 degree'
p200
ag4
(g8
S'\xfcW\x1fc\t\x9d\xed?'
p201
tp202
Rp203
ag4
(g8
S'F\x17]t\xd1E\xed?'
p204
tp205
Rp206
aF0.2900850772857666
aI1609
aS'kernel = 0 degree'
p207
aa(lp208
g4
(g8
S'c\xf4\x00*8\xa7\xed?'
p209
tp210
Rp211
ag4
(g8
S'\xf8\xd4\xa4\xa2\x7fO\xed?'
p212
tp213
Rp214
aF0.5352327823638916
aI1609
aS'kernel = 0 degree'
p215
ag4
(g8
S'\xfc^ST~\xb6\xed?'
p216
tp217
Rp218
ag4
(g8
S'\xa9K\xf5\xe8Td\xed?'
p219
tp220
Rp221
aF0.3234128952026367
aI1609
aS'kernel = 0 degree'
p222
ag4
(g8
S'\xc9\x82z\x0e}~\xed?'
p223
tp224
Rp225
ag4
(g8
S'\x0e\xd2 \r\xd2 \xed?'
p226
tp227
Rp228
aF0.2935471534729004
aI1609
aS'kernel = 0 degree'
p229
aa(lp230
g4
(g8
S'\xc9\x9eJ\xd3P\xe4\xed?'
p231
tp232
Rp233
ag4
(g8
S'\xe2\x8e\xb8#\xee\x88\xed?'
p234
tp235
Rp236
aF0.3664541244506836
aI1609
aS'kernel = 0 degree'
p237
ag4
(g8
S'\x96\xd0\xd9o9\xdf\xed?'
p238
tp239
Rp240
ag4
(g8
S'U\x0f^1\xb8\x7f\xed?'
p241
tp242
Rp243
aF0.32558298110961914
aI1609
aS'kernel = 0 degree'
p244
ag4
(g8
S'\xfcW\x1fc\t\x9d\xed?'
p245
tp246
Rp247
ag4
(g8
S'\xf1\xea\xf4e\xbc:\xed?'
p248
tp249
Rp250
aF0.2919909954071045
aI1609
aS'kernel = 0 degree'
p251
aa(lp252
g4
(g8
S'\xc9\x82z\x0e}~\xed?'
p253
tp254
Rp255
ag4
(g8
S'\xb9\xa7\x11\x96{\x1a\xed?'
p256
tp257
Rp258
aF0.3664870262145996
aI1609
aS'kernel = 0 degree'
p259
ag4
(g8
S'\xfc^ST~\xb6\xed?'
p260
tp261
Rp262
ag4
(g8
S'ez\xc6H\xb4[\xed?'
p263
tp264
Rp265
aF0.3267648220062256
aI1609
aS'kernel = 0 degree'
p266
ag4
(g8
S'\xc9{F\x1d\x08e\xed?'
p267
tp268
Rp269
ag4
(g8
S'\xca\x0c\x9f\xae\xea\xf6\xec?'
p270
tp271
Rp272
aF0.2887599468231201
aI1609
aS'kernel = 0 degree'
p273
aa(lp274
g4
(g8
S'c\xfb4\x1b\xad\xc0\xed?'
p275
tp276
Rp277
ag4
(g8
S'][u\x1f\xd7V\xed?'
p278
tp279
Rp280
aF0.3714730739593506
aI1609
aS'kernel = 0 degree'
p281
ag4
(g8
S'0-\xc4\xb7\x95\xbb\xed?'
p282
tp283
Rp284
ag4
(g8
S'\xdeC\xd4kNP\xed?'
p285
tp286
Rp287
aF0.3245060443878174
aI1609
aS'kernel = 0 degree'
p288
ag4
(g8
S'\xc9\x89\xae\xff\xf1\x97\xed?'
p289
tp290
Rp291
ag4
(g8
S'\xa1\xb1x\xb45!\xed?'
p292
tp293
Rp294
aF0.2898261547088623
aI1609
aS'kernel = 0 degree'
p295
aa(lp296
g4
(g8
S'/&\x90\xc6 \xa2\xed?'
p297
tp298
Rp299
ag4
(g8
S'a\xfe\xe6D\xefR\xed?'
p300
tp301
Rp302
aF0.3638010025024414
aI1609
aS'kernel = 0 degree'
p303
ag4
(g8
S'\xfcP\xebq\x94\x83\xed?'
p304
tp305
Rp306
ag4
(g8
S'\xbe\xd6\xb8va/\xed?'
p307
tp308
Rp309
aF0.3246321678161621
aI1609
aS'kernel = 0 degree'
p310
ag4
(g8
S'b\xdfdV\xd9Z\xed?'
p311
tp312
Rp313
ag4
(g8
S'\xc7\x94k\xb6V\x02\xed?'
p314
tp315
Rp316
aF0.2843010425567627
aI1609
aS'kernel = 0 degree'
p317
aa(lp318
g4
(g8
S'\xfc^ST~\xb6\xed?'
p319
tp320
Rp321
ag4
(g8
S'S\x9d-\xd5\xd9R\xed?'
p322
tp323
Rp324
aF0.36531996726989746
aI1609
aS'kernel = 0 degree'
p325
ag4
(g8
S'\xfcW\x1fc\t\x9d\xed?'
p326
tp327
Rp328
ag4
(g8
S'\xf3\xea\xf4e\xbc:\xed?'
p329
tp330
Rp331
aF0.3305079936981201
aI1609
aS'kernel = 0 degree'
p332
ag4
(g8
S'\xc9{F\x1d\x08e\xed?'
p333
tp334
Rp335
ag4
(g8
S'\x1a\x92\xb5d\x9c\xfd\xec?'
p336
tp337
Rp338
aF0.2900068759918213
aI1609
aS'kernel = 0 degree'
p339
aa(lp340
g4
(g8
S'\xc9\x97\x16\xe2\xdb\xca\xed?'
p341
tp342
Rp343
ag4
(g8
S'}\xdfV\xb7\xf8\x88\xed?'
p344
tp345
Rp346
aF0.5302700996398926
aI1609
aS'kernel = 0 degree'
p347
ag4
(g8
S'04\xf8\xa8\n\xd5\xed?'
p348
tp349
Rp350
ag4
(g8
S'\xa9=k9\xc3\x97\xed?'
p351
tp352
Rp353
aF0.3297550678253174
aI1609
aS'kernel = 0 degree'
p354
ag4
(g8
S'b\xdfdV\xd9Z\xed?'
p355
tp356
Rp357
ag4
(g8
S'\xcf\xd0mg\xf3\x0c\xed?'
p358
tp359
Rp360
aF0.2851870059967041
aI1609
aS'kernel = 0 degree'
p361
aa(lp362
g4
(g8
S'\xc9\x82z\x0e}~\xed?'
p363
tp364
Rp365
ag4
(g8
S'\xb9\xa7\x11\x96{\x1a\xed?'
p366
tp367
Rp368
aF0.36823105812072754
aI1609
aS'kernel = 0 degree'
p369
ag4
(g8
S'\xc9\x82z\x0e}~\xed?'
p370
tp371
Rp372
ag4
(g8
S'S\xed\xe8L\xaa\x1d\xed?'
p373
tp374
Rp375
aF0.3244938850402832
aI1609
aS'kernel = 0 degree'
p376
ag4
(g8
S'\xfcW\x1fc\t\x9d\xed?'
p377
tp378
Rp379
ag4
(g8
S'\xdb\xbb\x0e\xe8\xc6<\xed?'
p380
tp381
Rp382
aF0.28057408332824707
aI1609
aS'kernel = 0 degree'
p383
aa(lp384
g4
(g8
S'\x96\xc2q\x8dO\xac\xed?'
p385
tp386
Rp387
ag4
(g8
S';;\xba\x7f\xc1W\xed?'
p388
tp389
Rp390
aF0.3629789352416992
aI1609
aS'kernel = 0 degree'
p391
ag4
(g8
S'\xc9\x89\xae\xff\xf1\x97\xed?'
p392
tp393
Rp394
ag4
(g8
S'\xdf\x19G\x91{C\xed?'
p395
tp396
Rp397
aF0.31694698333740234
aI1609
aS'kernel = 0 degree'
p398
ag4
(g8
S'\x95\xad\xd5\xb9\xf0_\xed?'
p399
tp400
Rp401
ag4
(g8
S'\x03\xd4\xdey}\x06\xed?'
p402
tp403
Rp404
aF0.2786850929260254
aI1609
aS'kernel = 0 degree'
p405
aa(lp406
g4
(g8
S'\xfc^ST~\xb6\xed?'
p407
tp408
Rp409
ag4
(g8
S'S\x9d-\xd5\xd9R\xed?'
p410
tp411
Rp412
aF0.36237001419067383
aI1609
aS'kernel = 0 degree'
p413
ag4
(g8
S'b\xed\xcc8\xc3\x8d\xed?'
p414
tp415
Rp416
ag4
(g8
S'\x07\x96y\xb2@$\xed?'
p417
tp418
Rp419
aF0.3347048759460449
aI1609
aS'kernel = 0 degree'
p420
ag4
(g8
S'c\xfb4\x1b\xad\xc0\xed?'
p421
tp422
Rp423
ag4
(g8
S'\xe2\xdf\xc3e\xcd\\\xed?'
p424
tp425
Rp426
aF0.2895200252532959
aI1609
aS'kernel = 0 degree'
p427
aa(lp428
g4
(g8
S'\xfcP\xebq\x94\x83\xed?'
p429
tp430
Rp431
ag4
(g8
S'\x19\xbe\x00\xd4n\x19\xed?'
p432
tp433
Rp434
aF0.36578798294067383
aI1609
aS'kernel = 0 degree'
p435
ag4
(g8
S'\x96\xbb=\x9c\xda\x92\xed?'
p436
tp437
Rp438
ag4
(g8
S'\xd2m\x91t[$\xed?'
p439
tp440
Rp441
aF0.3304100036621094
aI1609
aS'kernel = 0 degree'
p442
ag4
(g8
S'\xfcW\x1fc\t\x9d\xed?'
p443
tp444
Rp445
ag4
(g8
S'\xbbjw\xa0\x7f3\xed?'
p446
tp447
Rp448
aF0.2880079746246338
aI1609
aS'kernel = 0 degree'
p449
aa(lp450
g4
(g8
S'c\x02i\x0c"\xda\xed?'
p451
tp452
Rp453
ag4
(g8
S'_\xd0\x17\xf4\x05}\xed?'
p454
tp455
Rp456
aF0.36509203910827637
aI1609
aS'kernel = 0 degree'
p457
ag4
(g8
S'c\xfb4\x1b\xad\xc0\xed?'
p458
tp459
Rp460
ag4
(g8
S'\xc8\x95\xf8\x07\xb1a\xed?'
p461
tp462
Rp463
aF0.32602596282958984
aI1609
aS'kernel = 0 degree'
p464
ag4
(g8
S'\xfc^ST~\xb6\xed?'
p465
tp466
Rp467
ag4
(g8
S'\x8bB\xd8>\xccW\xed?'
p468
tp469
Rp470
aF0.28607702255249023
aI1609
aS'kernel = 0 degree'
p471
aa(lp472
g4
(g8
S'b\xed\xcc8\xc3\x8d\xed?'
p473
tp474
Rp475
ag4
(g8
S'\xd5\xb3\xba\xc6\x9b\x10\xed?'
p476
tp477
Rp478
aF0.3542509078979492
aI1609
aS'kernel = 0 degree'
p479
ag4
(g8
S'/\x1f\\\xd5\xab\x88\xed?'
p480
tp481
Rp482
ag4
(g8
S'\x9c=+\x1b\xcd\x08\xed?'
p483
tp484
Rp485
aF0.32202887535095215
aI1609
aS'kernel = 0 degree'
p486
ag4
(g8
S'\x96\xb4\t\xabey\xed?'
p487
tp488
Rp489
ag4
(g8
S'\xc5/\xc5\xf4z\xfa\xec?'
p490
tp491
Rp492
aF0.2774498462677002
aI1609
aS'kernel = 0 degree'
p493
aa(lp494
g4
(g8
S'0-\xc4\xb7\x95\xbb\xed?'
p495
tp496
Rp497
ag4
(g8
S'QQQQQQ\xed?'
p498
tp499
Rp500
aF0.35530996322631836
aI1609
aS'kernel = 0 degree'
p501
ag4
(g8
S'\x96\xc9\xa5~\xc4\xc5\xed?'
p502
tp503
Rp504
ag4
(g8
S'\xa4\xb6\x19\x0c`Z\xed?'
p505
tp506
Rp507
aF0.3197910785675049
aI1609
aS'kernel = 0 degree'
p508
ag4
(g8
S'\xc9\x89\xae\xff\xf1\x97\xed?'
p509
tp510
Rp511
ag4
(g8
S'\xf55\xcd/\x00-\xed?'
p512
tp513
Rp514
aF0.2839629650115967
aI1609
aS'kernel = 0 degree'
p515
aa(lp516
g4
(g8
S'\xfcP\xebq\x94\x83\xed?'
p517
tp518
Rp519
ag4
(g8
S'\xdf8e\xc6\xd6\x1f\xed?'
p520
tp521
Rp522
aF0.3546431064605713
aI1609
aS'kernel = 0 degree'
p523
ag4
(g8
S'b\xed\xcc8\xc3\x8d\xed?'
p524
tp525
Rp526
ag4
(g8
S'-\x1d\xdb\xd2\xb1-\xed?'
p527
tp528
Rp529
aF0.31693315505981445
aI1609
aS'kernel = 0 degree'
p530
ag4
(g8
S'\xfcI\xb7\x80\x1fj\xed?'
p531
tp532
Rp533
ag4
(g8
S'\x8c.\xba\xe8\xa2\x0b\xed?'
p534
tp535
Rp536
aF0.2798788547515869
aI1609
aS'kernel = 0 degree'
p537
aa(lp538
g4
(g8
S'0-\xc4\xb7\x95\xbb\xed?'
p539
tp540
Rp541
ag4
(g8
S'\xdcC\xd4kNP\xed?'
p542
tp543
Rp544
aF0.3582792282104492
aI1609
aS'kernel = 0 degree'
p545
ag4
(g8
S'c\x02i\x0c"\xda\xed?'
p546
tp547
Rp548
ag4
(g8
S'\x1e\xf0ay\x93r\xed?'
p549
tp550
Rp551
aF0.3182988166809082
aI1609
aS'kernel = 0 degree'
p552
ag4
(g8
S'\x96\xc2q\x8dO\xac\xed?'
p553
tp554
Rp555
ag4
(g8
S'\xbf\xd5\xeb\xe4\xf80\xed?'
p556
tp557
Rp558
aF0.28144192695617676
aI1609
aS'kernel = 0 degree'
p559
aa(lp560
g4
(g8
S'/\n\xc0\x01M<\xed?'
p561
tp562
Rp563
ag4
(g8
S'\xc7\x08\xd3N(\xe3\xec?'
p564
tp565
Rp566
aF0.3527350425720215
aI1609
aS'kernel = 0 degree'
p567
ag4
(g8
S'\xfc;O\x9e57\xed?'
p568
tp569
Rp570
ag4
(g8
S'\xc6\n\xd2\x7f\xbc\xdb\xec?'
p571
tp572
Rp573
aF0.3146650791168213
aI1609
aS'kernel = 0 degree'
p574
ag4
(g8
S'\xfb4\x1b\xad\xc0\x1d\xed?'
p575
tp576
Rp577
ag4
(g8
S'\xbb{\xd7^\xf6\xb4\xec?'
p578
tp579
Rp580
aF0.2769920825958252
aI1609
aS'kernel = 0 degree'
p581
aa(lp582
g4
(g8
S'0-\xc4\xb7\x95\xbb\xed?'
p583
tp584
Rp585
ag4
(g8
S'\xdcC\xd4kNP\xed?'
p586
tp587
Rp588
aF0.3575620651245117
aI1609
aS'kernel = 0 degree'
p589
ag4
(g8
S'\xfce\x87E\xf3\xcf\xed?'
p590
tp591
Rp592
ag4
(g8
S'Y\x1b\x1ck\x83c\xed?'
p593
tp594
Rp595
aF0.32001209259033203
aI1609
aS'kernel = 0 degree'
p596
ag4
(g8
S'0-\xc4\xb7\x95\xbb\xed?'
p597
tp598
Rp599
ag4
(g8
S'\xdf\xe2\xb4f\xfbD\xed?'
p600
tp601
Rp602
aF0.2843289375305176
aI1609
aS'kernel = 0 degree'
p603
aa(lp604
g4
(g8
S'\x96\xd0\xd9o9\xdf\xed?'
p605
tp606
Rp607
ag4
(g8
S'\x96\xe7}\x11 \x90\xed?'
p608
tp609
Rp610
aF0.35773587226867676
aI1609
aS'kernel = 0 degree'
p611
ag4
(g8
S'\x96\xc9\xa5~\xc4\xc5\xed?'
p612
tp613
Rp614
ag4
(g8
S'*O\xa6\xb6Iu\xed?'
p615
tp616
Rp617
aF0.3199949264526367
aI1609
aS'kernel = 0 degree'
p618
ag4
(g8
S'\x96\xc9\xa5~\xc4\xc5\xed?'
p619
tp620
Rp621
ag4
(g8
S'q=\n\xd7\xa3p\xed?'
p622
tp623
Rp624
aF0.27985191345214844
aI1609
aS'kernel = 0 degree'
p625
aa(lp626
g4
(g8
S'\xca\xac\xb2\xb5:\x17\xee?'
p627
tp628
Rp629
ag4
(g8
S'\xf1\xf7t\xb6\x15\xe6\xed?'
p630
tp631
Rp632
aF0.3555169105529785
aI1609
aS'kernel = 0 degree'
p633
ag4
(g8
S'c\t\x9d\xfd\x96\xf3\xed?'
p634
tp635
Rp636
ag4
(g8
S'r$p\x80w\xbe\xed?'
p637
tp638
Rp639
aF0.4884970188140869
aI1609
aS'kernel = 0 degree'
p640
ag4
(g8
S'\x96\xd0\xd9o9\xdf\xed?'
p641
tp642
Rp643
ag4
(g8
S'\xb0\xcbl\x0e\xed\xac\xed?'
p644
tp645
Rp646
aF0.2806229591369629
aI1609
aS'kernel = 0 degree'
p647
aa(lp648
g4
(g8
S'c\x02i\x0c"\xda\xed?'
p649
tp650
Rp651
ag4
(g8
S'\x82\x86\x93\xba/\x8f\xed?'
p652
tp653
Rp654
aF0.3542661666870117
aI1609
aS'kernel = 0 degree'
p655
ag4
(g8
S'\x96\xc2q\x8dO\xac\xed?'
p656
tp657
Rp658
ag4
(g8
S'b\x94\xa9x\xaeY\xed?'
p659
tp660
Rp661
aF0.3186969757080078
aI1609
aS'kernel = 0 degree'
p662
ag4
(g8
S'b\xe6\x98GNt\xed?'
p663
tp664
Rp665
ag4
(g8
S'($\x17\xf0z\x1b\xed?'
p666
tp667
Rp668
aF0.28190088272094727
aI1609
aS'kernel = 0 degree'
p669
aa(lp670
g4
(g8
S'\xfce\x87E\xf3\xcf\xed?'
p671
tp672
Rp673
ag4
(g8
S'\xe4\xd7(8-~\xed?'
p674
tp675
Rp676
aF0.3615989685058594
aI1609
aS'kernel = 0 degree'
p677
ag4
(g8
S'c\xfb4\x1b\xad\xc0\xed?'
p678
tp679
Rp680
ag4
(g8
S'\x8d\xc9\xf9\xb1Bk\xed?'
p681
tp682
Rp683
aF0.32193899154663086
aI1609
aS'kernel = 0 degree'
p684
ag4
(g8
S'\xc9\x90\xe2\xf0f\xb1\xed?'
p685
tp686
Rp687
ag4
(g8
S'\xc6\x08&\xfa;Y\xed?'
p688
tp689
Rp690
aF0.27652692794799805
aI1609
aS'kernel = 0 degree'
p691
aa(lp692
g4
(g8
S'/&\x90\xc6 \xa2\xed?'
p693
tp694
Rp695
ag4
(g8
S'4\xa9\xf2P-H\xed?'
p696
tp697
Rp698
aF0.5293018817901611
aI1609
aS'kernel = 0 degree'
p699
ag4
(g8
S'/\x1f\\\xd5\xab\x88\xed?'
p700
tp701
Rp702
ag4
(g8
S'R\xf5\xca\xef3%\xed?'
p703
tp704
Rp705
aF0.3903372287750244
aI1609
aS'kernel = 0 degree'
p706
ag4
(g8
S'b\xdfdV\xd9Z\xed?'
p707
tp708
Rp709
ag4
(g8
S'/\x83Q\xc0\xa1\xf9\xec?'
p710
tp711
Rp712
aF0.28147006034851074
aI1609
aS'kernel = 0 degree'
p713
aa(lp714
g4
(g8
S'\x95\xa6\xa1\xc8{F\xed?'
p715
tp716
Rp717
ag4
(g8
S'\x9a 7\x863\xea\xec?'
p718
tp719
Rp720
aF0.3519399166107178
aI1609
aS'kernel = 0 degree'
p721
ag4
(g8
S'/\n\xc0\x01M<\xed?'
p722
tp723
Rp724
ag4
(g8
S'\xb0\x10\xb1g\n\xe2\xec?'
p725
tp726
Rp727
aF0.3103809356689453
aI1609
aS'kernel = 0 degree'
p728
ag4
(g8
S'b\xca\xc8\x82z\x0e\xed?'
p729
tp730
Rp731
ag4
(g8
S'\xf0H\x7f=W\xb1\xec?'
p732
tp733
Rp734
aF0.28269004821777344
aI1609
aS'kernel = 0 degree'
p735
aa(lp736
g4
(g8
S'\x96\xb4\t\xabey\xed?'
p737
tp738
Rp739
ag4
(g8
S'\x1d\xc6\x86\x9e\xf54\xed?'
p740
tp741
Rp742
aF0.3526160717010498
aI1609
aS'kernel = 0 degree'
p743
ag4
(g8
S'\xfc^ST~\xb6\xed?'
p744
tp745
Rp746
ag4
(g8
S'\xf9M\x17o.{\xed?'
p747
tp748
Rp749
aF0.49542880058288574
aI1609
aS'kernel = 0 degree'
p750
ag4
(g8
S'\xc9{F\x1d\x08e\xed?'
p751
tp752
Rp753
ag4
(g8
S'\x9e\x8c\xa9\xbdg\x1c\xed?'
p754
tp755
Rp756
aF0.2836000919342041
aI1609
aS'kernel = 0 degree'
p757
aa(lp758
g4
(g8
S'\x95\xad\xd5\xb9\xf0_\xed?'
p759
tp760
Rp761
ag4
(g8
S'\x03\xd4\xdey}\x06\xed?'
p762
tp763
Rp764
aF0.3553028106689453
aI1609
aS'kernel = 0 degree'
p765
ag4
(g8
S'/\x18(\xe46o\xed?'
p766
tp767
Rp768
ag4
(g8
S'd\xd1q\xba8\x16\xed?'
p769
tp770
Rp771
aF0.3200387954711914
aI1609
aS'kernel = 0 degree'
p772
ag4
(g8
S'/\x18(\xe46o\xed?'
p773
tp774
Rp775
ag4
(g8
S'\x08\x9a\x8d&R\x18\xed?'
p776
tp777
Rp778
aF0.2806539535522461
aI1609
aS'kernel = 0 degree'
p779
aa(lp780
g4
(g8
S'\xc9\x89\xae\xff\xf1\x97\xed?'
p781
tp782
Rp783
ag4
(g8
S'\xc4hh\x9e_I\xed?'
p784
tp785
Rp786
aF0.3518788814544678
aI1609
aS'kernel = 0 degree'
p787
ag4
(g8
S'\x96\xb4\t\xabey\xed?'
p788
tp789
Rp790
ag4
(g8
S'\x92\x05Q\xed\xe7%\xed?'
p791
tp792
Rp793
aF0.31804704666137695
aI1609
aS'kernel = 0 degree'
p794
ag4
(g8
S'\xc8t\x12,\x93K\xed?'
p795
tp796
Rp797
ag4
(g8
S'\x13t&,<\xf9\xec?'
p798
tp799
Rp800
aF0.27413392066955566
aI1609
aS'kernel = 0 degree'
p801
aa(lp802
g4
(g8
S'/\x1f\\\xd5\xab\x88\xed?'
p803
tp804
Rp805
ag4
(g8
S'\x17]t\xd1E\x17\xed?'
p806
tp807
Rp808
aF0.3528740406036377
aI1609
aS'kernel = 0 degree'
p809
ag4
(g8
S'\xc9\x82z\x0e}~\xed?'
p810
tp811
Rp812
ag4
(g8
S'\x0c-\xb4\xd0B\x0b\xed?'
p813
tp814
Rp815
aF0.31610703468322754
aI1609
aS'kernel = 0 degree'
p816
ag4
(g8
S'c\xfb4\x1b\xad\xc0\xed?'
p817
tp818
Rp819
ag4
(g8
S'S\x1d=\xd5\xd1S\xed?'
p820
tp821
Rp822
aF0.28150486946105957
aI1609
aS'kernel = 0 degree'
p823
aa(lp824
g4
(g8
S'\xc9\x97\x16\xe2\xdb\xca\xed?'
p825
tp826
Rp827
ag4
(g8
S'`\xdd\xfe\xd5\xed_\xed?'
p828
tp829
Rp830
aF0.3563361167907715
aI1609
aS'kernel = 0 degree'
p831
ag4
(g8
S'\xc9\x90\xe2\xf0f\xb1\xed?'
p832
tp833
Rp834
ag4
(g8
S')}\xd1\x9e,B\xed?'
p835
tp836
Rp837
aF0.31846189498901367
aI1609
aS'kernel = 0 degree'
p838
ag4
(g8
S'c\xfb4\x1b\xad\xc0\xed?'
p839
tp840
Rp841
ag4
(g8
S'\x9e\xc0\x8f\x1e\xd6U\xed?'
p842
tp843
Rp844
aF0.44409799575805664
aI1609
aS'kernel = 0 degree'
p845
aa(lp846
g4
(g8
S'b\xed\xcc8\xc3\x8d\xed?'
p847
tp848
Rp849
ag4
(g8
S'\xa3\xbb\xc3@\xe8;\xed?'
p850
tp851
Rp852
aF0.3545858860015869
aI1609
aS'kernel = 0 degree'
p853
ag4
(g8
S'\x96\xb4\t\xabey\xed?'
p854
tp855
Rp856
ag4
(g8
S'\xf9`\xd8\x0c\xbf \xed?'
p857
tp858
Rp859
aF0.48741793632507324
aI1609
aS'kernel = 0 degree'
p860
ag4
(g8
S'\xfcB\x83\x8f\xaaP\xed?'
p861
tp862
Rp863
ag4
(g8
S'b\x82\xee*\xc5\x04\xed?'
p864
tp865
Rp866
aF0.2814159393310547
aI1609
aS'kernel = 0 degree'
p867
aa(lp868
g4
(g8
S'\x95\xad\xd5\xb9\xf0_\xed?'
p869
tp870
Rp871
ag4
(g8
S"'\x94h\xe0\x16\x01\xed?"
p872
tp873
Rp874
aF0.350877046585083
aI1609
aS'kernel = 0 degree'
p875
ag4
(g8
S'b\xdfdV\xd9Z\xed?'
p876
tp877
Rp878
ag4
(g8
S'_\xf2\xca#\xbb\xfa\xec?'
p879
tp880
Rp881
aF0.31528687477111816
aI1609
aS'kernel = 0 degree'
p882
ag4
(g8
S'\xc9{F\x1d\x08e\xed?'
p883
tp884
Rp885
ag4
(g8
S'n\xe2`Np\x07\xed?'
p886
tp887
Rp888
aF0.2825131416320801
aI1609
aS'kernel = 0 degree'
p889
aa(lp890
g4
(g8
S'\xc9{F\x1d\x08e\xed?'
p891
tp892
Rp893
ag4
(g8
S'\xffu+\xe4\xed\xe0\xec?'
p894
tp895
Rp896
aF0.350679874420166
aI1609
aS'kernel = 0 degree'
p897
ag4
(g8
S'\x95\xad\xd5\xb9\xf0_\xed?'
p898
tp899
Rp900
ag4
(g8
S'\xbf\xe6\xa9\x14\xd2\xd7\xec?'
p901
tp902
Rp903
aF0.3160400390625
aI1609
aS'kernel = 0 degree'
p904
ag4
(g8
S'b\xdfdV\xd9Z\xed?'
p905
tp906
Rp907
ag4
(g8
S'\x9e4\xf6\xc6\xa4\xce\xec?'
p908
tp909
Rp910
aF0.44884395599365234
aI1609
aS'kernel = 0 degree'
p911
aa(lp912
g4
(g8
S'\xfcP\xebq\x94\x83\xed?'
p913
tp914
Rp915
ag4
(g8
S'\x05\x824U\xa7\xfe\xec?'
p916
tp917
Rp918
aF0.35454607009887695
aI1609
aS'kernel = 0 degree'
p919
ag4
(g8
S'\x96\xbb=\x9c\xda\x92\xed?'
p920
tp921
Rp922
ag4
(g8
S'\n\xc5\xadP\xdc\n\xed?'
p923
tp924
Rp925
aF0.31632399559020996
aI1609
aS'kernel = 0 degree'
p926
ag4
(g8
S'/\x18(\xe46o\xed?'
p927
tp928
Rp929
ag4
(g8
S'Y\xd2|\xf8\xd6\xe4\xec?'
p930
tp931
Rp932
aF0.2814640998840332
aI1609
aS'kernel = 0 degree'
p933
aa(lp934
g4
(g8
S'b\xe6\x98GNt\xed?'
p935
tp936
Rp937
ag4
(g8
S'l\xed\xd1;\x0f\x07\xed?'
p938
tp939
Rp940
aF0.35036611557006836
aI1609
aS'kernel = 0 degree'
p941
ag4
(g8
S'/\x18(\xe46o\xed?'
p942
tp943
Rp944
ag4
(g8
S'\x0c\x8c\xd6\xf92\xfd\xec?'
p945
tp946
Rp947
aF0.31498098373413086
aI1609
aS'kernel = 0 degree'
p948
ag4
(g8
S'\xfcB\x83\x8f\xaaP\xed?'
p949
tp950
Rp951
ag4
(g8
S'\xe6\r\xb2\x04\x9d\xd4\xec?'
p952
tp953
Rp954
aF0.2792809009552002
aI1609
aS'kernel = 0 degree'
p955
aa(lp956
g4
(g8
S'b\xe6\x98GNt\xed?'
p957
tp958
Rp959
ag4
(g8
S'\xe5\xe4=\x15\xf2\x11\xed?'
p960
tp961
Rp962
aF0.3537580966949463
aI1609
aS'kernel = 0 degree'
p963
ag4
(g8
S'/\x11\xf4\xf2\xc1U\xed?'
p964
tp965
Rp966
ag4
(g8
S'\xf9\x84!\x83D\xea\xec?'
p967
tp968
Rp969
aF0.31716489791870117
aI1609
aS'kernel = 0 degree'
p970
ag4
(g8
S'b\xed\xcc8\xc3\x8d\xed?'
p971
tp972
Rp973
ag4
(g8
S'\x98\xd2aJ\x87)\xed?'
p974
tp975
Rp976
aF0.2760438919067383
aI1609
aS'kernel = 0 degree'
p977
aa(lp978
g4
(g8
S'c\xfb4\x1b\xad\xc0\xed?'
p979
tp980
Rp981
ag4
(g8
S'\xb6-\xfd^\xd7W\xed?'
p982
tp983
Rp984
aF0.3536691665649414
aI1609
aS'kernel = 0 degree'
p985
ag4
(g8
S'\xc9\x90\xe2\xf0f\xb1\xed?'
p986
tp987
Rp988
ag4
(g8
S'\x96\xd4VR[I\xed?'
p989
tp990
Rp991
aF0.31088685989379883
aI1609
aS'kernel = 0 degree'
p992
ag4
(g8
S'/\x1f\\\xd5\xab\x88\xed?'
p993
tp994
Rp995
ag4
(g8
S'\x01^\xf3\xc1\xd6\x1e\xed?'
p996
tp997
Rp998
aF0.2842271327972412
aI1609
aS'kernel = 0 degree'
p999
aa(lp1000
g4
(g8
S'c\xfb4\x1b\xad\xc0\xed?'
p1001
tp1002
Rp1003
ag4
(g8
S'\xb6-\xfd^\xd7W\xed?'
p1004
tp1005
Rp1006
aF0.3583030700683594
aI1609
aS'kernel = 0 degree'
p1007
ag4
(g8
S'\xfcW\x1fc\t\x9d\xed?'
p1008
tp1009
Rp1010
ag4
(g8
S'},f\xa7\x1c,\xed?'
p1011
tp1012
Rp1013
aF0.3179299831390381
aI1609
aS'kernel = 0 degree'
p1014
ag4
(g8
S'b\xed\xcc8\xc3\x8d\xed?'
p1015
tp1016
Rp1017
ag4
(g8
S'\nw-\xcbw\x19\xed?'
p1018
tp1019
Rp1020
aF0.2797989845275879
aI1609
aS'kernel = 0 degree'
p1021
aa(lp1022
g4
(g8
S'\x96\xd7\ra\xae\xf8\xed?'
p1023
tp1024
Rp1025
ag4
(g8
S'\xcd\xda\xac\xcd\xda\xac\xed?'
p1026
tp1027
Rp1028
aF0.35381197929382324
aI1609
aS'kernel = 0 degree'
p1029
ag4
(g8
S'\xc9\x97\x16\xe2\xdb\xca\xed?'
p1030
tp1031
Rp1032
ag4
(g8
S'\x8d\xf63\xe2\xa3z\xed?'
p1033
tp1034
Rp1035
aF0.31308507919311523
aI1609
aS'kernel = 0 degree'
p1036
ag4
(g8
S'c\xf4\x00*8\xa7\xed?'
p1037
tp1038
Rp1039
ag4
(g8
S'J]\x12>\x8fJ\xed?'
p1040
tp1041
Rp1042
aF0.2819058895111084
aI1609
aS'kernel = 0 degree'
p1043
aa(lp1044
g4
(g8
S'\xc9{F\x1d\x08e\xed?'
p1045
tp1046
Rp1047
ag4
(g8
S'J\xae\x03\xd4\x80\xfc\xec?'
p1048
tp1049
Rp1050
aF0.35045695304870605
aI1609
aS'kernel = 0 degree'
p1051
ag4
(g8
S'b\xdfdV\xd9Z\xed?'
p1052
tp1053
Rp1054
ag4
(g8
S'\xe8\xce\x9d;w\xee\xec?'
p1055
tp1056
Rp1057
aF0.3162381649017334
aI1609
aS'kernel = 0 degree'
p1058
ag4
(g8
S'\xfb4\x1b\xad\xc0\x1d\xed?'
p1059
tp1060
Rp1061
ag4
(g8
S'\x02\xb2ru\x80\xac\xec?'
p1062
tp1063
Rp1064
aF0.2761709690093994
aI1609
aS'kernel = 0 degree'
p1065
aa(lp1066
g4
(g8
S'b\xed\xcc8\xc3\x8d\xed?'
p1067
tp1068
Rp1069
ag4
(g8
S'\xd5\xb3\xba\xc6\x9b\x10\xed?'
p1070
tp1071
Rp1072
aF0.35708093643188477
aI1609
aS'kernel = 0 degree'
p1073
ag4
(g8
S'\x96\xb4\t\xabey\xed?'
p1074
tp1075
Rp1076
ag4
(g8
S'\xcf\xf1\x05\xa7\xaf\xf4\xec?'
p1077
tp1078
Rp1079
aF0.31526994705200195
aI1609
aS'kernel = 0 degree'
p1080
ag4
(g8
S'/\x18(\xe46o\xed?'
p1081
tp1082
Rp1083
ag4
(g8
S'"\xb5\xbe\xfc\x98\xe9\xec?'
p1084
tp1085
Rp1086
aF0.4455389976501465
aI1609
aS'kernel = 0 degree'
p1087
aa(lp1088
g4
(g8
S'\xfc^ST~\xb6\xed?'
p1089
tp1090
Rp1091
ag4
(g8
S'\xadc~\xf3\xadF\xed?'
p1092
tp1093
Rp1094
aF0.3503899574279785
aI1609
aS'kernel = 0 degree'
p1095
ag4
(g8
S'\xfc^ST~\xb6\xed?'
p1096
tp1097
Rp1098
ag4
(g8
S'\xe7\xb1\x15A\xc3I\xed?'
p1099
tp1100
Rp1101
aF0.3184969425201416
aI1609
aS'kernel = 0 degree'
p1102
ag4
(g8
S'\x96\xb4\t\xabey\xed?'
p1103
tp1104
Rp1105
ag4
(g8
S'\xc7\x8f\xb5]0\x00\xed?'
p1106
tp1107
Rp1108
aF0.2777068614959717
aI1609
aS'kernel = 0 degree'
p1109
aas.