(dp0
S'sat'
p1
(lp2
(lp3
cnumpy.core.multiarray
scalar
p4
(cnumpy
dtype
p5
(S'f8'
p6
I0
I1
tp7
Rp8
(I3
S'<'
p9
NNNI-1
I-1
I0
tp10
bS'04\xf8\xa8\n\xd5\xed?'
p11
tp12
Rp13
ag4
(g8
S'\x9d8\xb4J#\x8f\xed?'
p14
tp15
Rp16
aF1.0234780311584473
aI1609
aS'kernel = 0 degree'
p17
ag4
(g8
S'\xc9\x90\xe2\xf0f\xb1\xed?'
p18
tp19
Rp20
ag4
(g8
S'\x8e3P`yg\xed?'
p21
tp22
Rp23
aF0.9928081035614014
aI1609
aS'kernel = 0 degree'
p24
ag4
(g8
S'b\xe6\x98GNt\xed?'
p25
tp26
Rp27
ag4
(g8
S'\xfd\xd7*\xfd\xd7*\xed?'
p28
tp29
Rp30
aF0.7598750591278076
aI1609
aS'kernel = 0 degree'
p31
aa(lp32
g4
(g8
S'b\xe6\x98GNt\xed?'
p33
tp34
Rp35
ag4
(g8
S'\x7fpL\xf2\x90\x1d\xed?'
p36
tp37
Rp38
aF0.6776080131530762
aI1609
aS'kernel = 0 degree'
p39
ag4
(g8
S'b\xe6\x98GNt\xed?'
p40
tp41
Rp42
ag4
(g8
S'\x80-\x9aQ\x86\x1c\xed?'
p43
tp44
Rp45
aF0.6077358722686768
aI1609
aS'kernel = 0 degree'
p46
ag4
(g8
S'/\x03\x8c\x10\xd8"\xed?'
p47
tp48
Rp49
ag4
(g8
S'\xd4\xbf\x95\xa2\x84\xca\xec?'
p50
tp51
Rp52
aF0.32431602478027344
aI1609
aS'kernel = 0 degree'
p53
aa(lp54
g4
(g8
S'\xfcW\x1fc\t\x9d\xed?'
p55
tp56
Rp57
ag4
(g8
S'c\xb3\xa0\xdas2\xed?'
p58
tp59
Rp60
aF0.4024190902709961
aI1609
aS'kernel = 0 degree'
p61
ag4
(g8
S'\xfcP\xebq\x94\x83\xed?'
p62
tp63
Rp64
ag4
(g8
S'\x85\x0fu>\x02\x14\xed?'
p65
tp66
Rp67
aF0.61496901512146
aI1609
aS'kernel = 0 degree'
p68
ag4
(g8
S'b\xe6\x98GNt\xed?'
p69
tp70
Rp71
ag4
(g8
S'\x19\xd9r\x0eC\t\xed?'
p72
tp73
Rp74
aF0.5401949882507324
aI1609
aS'kernel = 0 degree'
p75
aa(lp76
g4
(g8
S'c\xf4\x00*8\xa7\xed?'
p77
tp78
Rp79
ag4
(g8
S'\xd0\x17\xf4\x05}A\xed?'
p80
tp81
Rp82
aF0.40605783462524414
aI1609
aS'kernel = 0 degree'
p83
ag4
(g8
S'\x96\xc9\xa5~\xc4\xc5\xed?'
p84
tp85
Rp86
ag4
(g8
S'\xb4\x118\\\xf9j\xed?'
p87
tp88
Rp89
aF0.610584020614624
aI1609
aS'kernel = 0 degree'
p90
ag4
(g8
S'\xfc^ST~\xb6\xed?'
p91
tp92
Rp93
ag4
(g8
S'\x8bB\xd8>\xccW\xed?'
p94
tp95
Rp96
aF0.5568790435791016
aI1609
aS'kernel = 0 degree'
p97
aa(lp98
g4
(g8
S'\x96\xbb=\x9c\xda\x92\xed?'
p99
tp100
Rp101
ag4
(g8
S'B\xb4\xe1\xf3\xc7\x1c\xed?'
p102
tp103
Rp104
aF0.40367794036865234
aI1609
aS'kernel = 0 degree'
p105
ag4
(g8
S'\xfc^ST~\xb6\xed?'
p106
tp107
Rp108
ag4
(g8
S'\xbe7\x0c\xc0zA\xed?'
p109
tp110
Rp111
aF0.36284589767456055
aI1609
aS'kernel = 0 degree'
p112
ag4
(g8
S'\x96\xb4\t\xabey\xed?'
p113
tp114
Rp115
ag4
(g8
S'\xcc\tt\xe8r\x02\xed?'
p116
tp117
Rp118
aF0.31999802589416504
aI1609
aS'kernel = 0 degree'
p119
aa(lp120
g4
(g8
S'c\xf4\x00*8\xa7\xed?'
p121
tp122
Rp123
ag4
(g8
S'L+\x97i\xe52\xed?'
p124
tp125
Rp126
aF0.6022899150848389
aI1609
aS'kernel = 0 degree'
p127
ag4
(g8
S'/\x1f\\\xd5\xab\x88\xed?'
p128
tp129
Rp130
ag4
(g8
S'Dws\xe8n\x0e\xed?'
p131
tp132
Rp133
aF0.36242103576660156
aI1609
aS'kernel = 0 degree'
p134
ag4
(g8
S'\xfcP\xebq\x94\x83\xed?'
p135
tp136
Rp137
ag4
(g8
S'\xd0\xd5\x03t\xf5\x00\xed?'
p138
tp139
Rp140
aF0.3176848888397217
aI1609
aS'kernel = 0 degree'
p141
aa(lp142
g4
(g8
S'0-\xc4\xb7\x95\xbb\xed?'
p143
tp144
Rp145
ag4
(g8
S'\x9f\x8a4}PX\xed?'
p146
tp147
Rp148
aF0.4044630527496338
aI1609
aS'kernel = 0 degree'
p149
ag4
(g8
S'0-\xc4\xb7\x95\xbb\xed?'
p150
tp151
Rp152
ag4
(g8
S'\xd5UQuUT\xed?'
p153
tp154
Rp155
aF0.3639209270477295
aI1609
aS'kernel = 0 degree'
p156
ag4
(g8
S'\xc9{F\x1d\x08e\xed?'
p157
tp158
Rp159
ag4
(g8
S'\x92Ku9\xea\x00\xed?'
p160
tp161
Rp162
aF0.32729101181030273
aI1609
aS'kernel = 0 degree'
p163
aa(lp164
g4
(g8
S'\x95\xad\xd5\xb9\xf0_\xed?'
p165
tp166
Rp167
ag4
(g8
S'/~\x92\xf6,\x02\xed?'
p168
tp169
Rp170
aF0.40084314346313477
aI1609
aS'kernel = 0 degree'
p171
ag4
(g8
S'\xc8t\x12,\x93K\xed?'
p172
tp173
Rp174
ag4
(g8
S'\xea\xfe\xc0\xb9\x15\xec\xec?'
p175
tp176
Rp177
aF0.3669240474700928
aI1609
aS'kernel = 0 degree'
p178
ag4
(g8
S'\xfc;O\x9e57\xed?'
p179
tp180
Rp181
ag4
(g8
S'MmjS\x9b\xda\xec?'
p182
tp183
Rp184
aF0.3232898712158203
aI1609
aS'kernel = 0 degree'
p185
aa(lp186
g4
(g8
S'0-\xc4\xb7\x95\xbb\xed?'
p187
tp188
Rp189
ag4
(g8
S'b\x1d0\xe5\x10b\xed?'
p190
tp191
Rp192
aF0.4059779644012451
aI1609
aS'kernel = 0 degree'
p193
ag4
(g8
S'/&\x90\xc6 \xa2\xed?'
p194
tp195
Rp196
ag4
(g8
S'\xf1G\xa8)/E\xed?'
p197
tp198
Rp199
aF0.36466503143310547
aI1609
aS'kernel = 0 degree'
p200
ag4
(g8
S'\xfcI\xb7\x80\x1fj\xed?'
p201
tp202
Rp203
ag4
(g8
S'y\xdc\x92\xdd9\x06\xed?'
p204
tp205
Rp206
aF0.32299184799194336
aI1609
aS'kernel = 0 degree'
p207
aa(lp208
g4
(g8
S'\xfb4\x1b\xad\xc0\x1d\xed?'
p209
tp210
Rp211
ag4
(g8
S'\xe7\xcb\x01\x96m\xbe\xec?'
p212
tp213
Rp214
aF0.4023630619049072
aI1609
aS'kernel = 0 degree'
p215
ag4
(g8
S'\xfb-\xe7\xbbK\x04\xed?'
p216
tp217
Rp218
ag4
(g8
S'\x82s+\xd8\xf9\x9a\xec?'
p219
tp220
Rp221
aF0.36218690872192383
aI1609
aS'kernel = 0 degree'
p222
ag4
(g8
S'\xc8Q\x0evJ\xcc\xec?'
p223
tp224
Rp225
ag4
(g8
S'\xea\xdd\t\xb3\xbec\xec?'
p226
tp227
Rp228
aF0.32589197158813477
aI1609
aS'kernel = 0 degree'
p229
aa(lp230
g4
(g8
S'04\xf8\xa8\n\xd5\xed?'
p231
tp232
Rp233
ag4
(g8
S'\x8a\xcdhaI{\xed?'
p234
tp235
Rp236
aF0.40642404556274414
aI1609
aS'kernel = 0 degree'
p237
ag4
(g8
S'\x96\xc9\xa5~\xc4\xc5\xed?'
p238
tp239
Rp240
ag4
(g8
S'\xbe\xafWT-f\xed?'
p241
tp242
Rp243
aF0.36484313011169434
aI1609
aS'kernel = 0 degree'
p244
ag4
(g8
S'\xc9\x89\xae\xff\xf1\x97\xed?'
p245
tp246
Rp247
ag4
(g8
S'\xe4\x82*\xcc\r.\xed?'
p248
tp249
Rp250
aF0.32432103157043457
aI1609
aS'kernel = 0 degree'
p251
aa(lp252
g4
(g8
S'\x96\xc2q\x8dO\xac\xed?'
p253
tp254
Rp255
ag4
(g8
S'<\x9d\xb9\xd3\x99;\xed?'
p256
tp257
Rp258
aF0.40216708183288574
aI1609
aS'kernel = 0 degree'
p259
ag4
(g8
S'\x96\xc2q\x8dO\xac\xed?'
p260
tp261
Rp262
ag4
(g8
S'\xb7\x05\x9e}S6\xed?'
p263
tp264
Rp265
aF0.3590390682220459
aI1609
aS'kernel = 0 degree'
p266
ag4
(g8
S'\xfc;O\x9e57\xed?'
p267
tp268
Rp269
ag4
(g8
S'+\x97i\xe52\xad\xec?'
p270
tp271
Rp272
aF0.31721997261047363
aI1609
aS'kernel = 0 degree'
p273
aa(lp274
g4
(g8
S'/\x1f\\\xd5\xab\x88\xed?'
p275
tp276
Rp277
ag4
(g8
S'\xd3mLA\xe8\x1f\xed?'
p278
tp279
Rp280
aF0.40500497817993164
aI1609
aS'kernel = 0 degree'
p281
ag4
(g8
S'\xc9\x89\xae\xff\xf1\x97\xed?'
p282
tp283
Rp284
ag4
(g8
S'\xe3\x82*\xcc\r.\xed?'
p285
tp286
Rp287
aF0.366790771484375
aI1609
aS'kernel = 0 degree'
p288
ag4
(g8
S'\x96\xbb=\x9c\xda\x92\xed?'
p289
tp290
Rp291
ag4
(g8
S'\xa9\xbbt4\xea.\xed?'
p292
tp293
Rp294
aF0.319627046585083
aI1609
aS'kernel = 0 degree'
p295
aa(lp296
g4
(g8
S'0-\xc4\xb7\x95\xbb\xed?'
p297
tp298
Rp299
ag4
(g8
S'b\x1d0\xe5\x10b\xed?'
p300
tp301
Rp302
aF0.4022998809814453
aI1609
aS'kernel = 0 degree'
p303
ag4
(g8
S'\x96\xc2q\x8dO\xac\xed?'
p304
tp305
Rp306
ag4
(g8
S'\x88\x05*\x0c\xf6M\xed?'
p307
tp308
Rp309
aF0.3650319576263428
aI1609
aS'kernel = 0 degree'
p310
ag4
(g8
S'\xc8m\xde:\x1e2\xed?'
p311
tp312
Rp313
ag4
(g8
S'\xf3\x87\xd8\x97\x89\xc7\xec?'
p314
tp315
Rp316
aF0.3201479911804199
aI1609
aS'kernel = 0 degree'
p317
aa(lp318
g4
(g8
S'\xfcW\x1fc\t\x9d\xed?'
p319
tp320
Rp321
ag4
(g8
S'>\xd4C=\xd4C\xed?'
p322
tp323
Rp324
aF0.40490293502807617
aI1609
aS'kernel = 0 degree'
p325
ag4
(g8
S'0-\xc4\xb7\x95\xbb\xed?'
p326
tp327
Rp328
ag4
(g8
S'\xa8\x11\x96{\x1aa\xed?'
p329
tp330
Rp331
aF0.36271119117736816
aI1609
aS'kernel = 0 degree'
p332
ag4
(g8
S'/\x18(\xe46o\xed?'
p333
tp334
Rp335
ag4
(g8
S'\x97\xc4\xc6\xba\xfc\x11\xed?'
p336
tp337
Rp338
aF0.3177950382232666
aI1609
aS'kernel = 0 degree'
p339
aa(lp340
g4
(g8
S'\xc9\x82z\x0e}~\xed?'
p341
tp342
Rp343
ag4
(g8
S'\x0c\x12\xa9sj\x19\xed?'
p344
tp345
Rp346
aF0.3989379405975342
aI1609
aS'kernel = 0 degree'
p347
ag4
(g8
S'\xfcB\x83\x8f\xaaP\xed?'
p348
tp349
Rp350
ag4
(g8
S"'U\xba!\xcd\xe3\xec?"
p351
tp352
Rp353
aF0.36167097091674805
aI1609
aS'kernel = 0 degree'
p354
ag4
(g8
S'b\xe6\x98GNt\xed?'
p355
tp356
Rp357
ag4
(g8
S'\xce-\xf4\x9fs\x0b\xed?'
p358
tp359
Rp360
aF0.3202052116394043
aI1609
aS'kernel = 0 degree'
p361
aa(lp362
g4
(g8
S'\x96\xbb=\x9c\xda\x92\xed?'
p363
tp364
Rp365
ag4
(g8
S'\xf5-\x80C$C\xed?'
p366
tp367
Rp368
aF0.40271687507629395
aI1609
aS'kernel = 0 degree'
p369
ag4
(g8
S'/&\x90\xc6 \xa2\xed?'
p370
tp371
Rp372
ag4
(g8
S'\x01\xd5\xfd\xab\x08P\xed?'
p373
tp374
Rp375
aF0.3613579273223877
aI1609
aS'kernel = 0 degree'
p376
ag4
(g8
S'\xfcB\x83\x8f\xaaP\xed?'
p377
tp378
Rp379
ag4
(g8
S'^\xeb\xa0\xe5\x00\xf9\xec?'
p380
tp381
Rp382
aF0.4980499744415283
aI1609
aS'kernel = 0 degree'
p383
aa(lp384
g4
(g8
S'c\x02i\x0c"\xda\xed?'
p385
tp386
Rp387
ag4
(g8
S'\xa48\xd71\x8as\xed?'
p388
tp389
Rp390
aF0.40315699577331543
aI1609
aS'kernel = 0 degree'
p391
ag4
(g8
S'/&\x90\xc6 \xa2\xed?'
p392
tp393
Rp394
ag4
(g8
S'\xb9\xce%\x07\xba3\xed?'
p395
tp396
Rp397
aF0.36526989936828613
aI1609
aS'kernel = 0 degree'
p398
ag4
(g8
S'\x96\xc2q\x8dO\xac\xed?'
p399
tp400
Rp401
ag4
(g8
S'7\x81\x15U\xe1C\xed?'
p402
tp403
Rp404
aF0.3269209861755371
aI1609
aS'kernel = 0 degree'
p405
aa(lp406
g4
(g8
S'\x96\xbb=\x9c\xda\x92\xed?'
p407
tp408
Rp409
ag4
(g8
S'B\xb4\xe1\xf3\xc7\x1c\xed?'
p410
tp411
Rp412
aF0.40293288230895996
aI1609
aS'kernel = 0 degree'
p413
ag4
(g8
S'b\xe6\x98GNt\xed?'
p414
tp415
Rp416
ag4
(g8
S'$\xa8\xa9\x10m\xf8\xec?'
p417
tp418
Rp419
aF0.3623659610748291
aI1609
aS'kernel = 0 degree'
p420
ag4
(g8
S'\x96\xb4\t\xabey\xed?'
p421
tp422
Rp423
ag4
(g8
S'\xcc\tt\xe8r\x02\xed?'
p424
tp425
Rp426
aF0.3185749053955078
aI1609
aS'kernel = 0 degree'
p427
aa(lp428
g4
(g8
S'\x95\xad\xd5\xb9\xf0_\xed?'
p429
tp430
Rp431
ag4
(g8
S'/~\x92\xf6,\x02\xed?'
p432
tp433
Rp434
aF0.38919496536254883
aI1609
aS'kernel = 0 degree'
p435
ag4
(g8
S'b\xd80edA\xed?'
p436
tp437
Rp438
ag4
(g8
S'Ii:E\xe0\xe3\xec?'
p439
tp440
Rp441
aF0.34992003440856934
aI1609
aS'kernel = 0 degree'
p442
ag4
(g8
S'\xfb4\x1b\xad\xc0\x1d\xed?'
p443
tp444
Rp445
ag4
(g8
S'\xe6\xcb\x01\x96m\xbe\xec?'
p446
tp447
Rp448
aF0.5016248226165771
aI1609
aS'kernel = 0 degree'
p449
aa(lp450
g4
(g8
S'\xfb4\x1b\xad\xc0\x1d\xed?'
p451
tp452
Rp453
ag4
(g8
S'\xe7\xcb\x01\x96m\xbe\xec?'
p454
tp455
Rp456
aF0.38786983489990234
aI1609
aS'kernel = 0 degree'
p457
ag4
(g8
S'\xfb-\xe7\xbbK\x04\xed?'
p458
tp459
Rp460
ag4
(g8
S'\xec~\xa3\xec~\xa3\xec?'
p461
tp462
Rp463
aF0.34603095054626465
aI1609
aS'kernel = 0 degree'
p464
ag4
(g8
S'.\xf5#.\xee\xef\xec?'
p465
tp466
Rp467
ag4
(g8
S'\x81\xd7\xdb\xe8\x0f\x85\xec?'
p468
tp469
Rp470
aF0.3103210926055908
aI1609
aS'kernel = 0 degree'
p471
aa(lp472
g4
(g8
S'0-\xc4\xb7\x95\xbb\xed?'
p473
tp474
Rp475
ag4
(g8
S'\x89e\xea\xe3Ao\xed?'
p476
tp477
Rp478
aF0.3899550437927246
aI1609
aS'kernel = 0 degree'
p479
ag4
(g8
S'c\xf4\x00*8\xa7\xed?'
p480
tp481
Rp482
ag4
(g8
S'K\xfb\xee$^T\xed?'
p483
tp484
Rp485
aF0.3527219295501709
aI1609
aS'kernel = 0 degree'
p486
ag4
(g8
S'c\xf4\x00*8\xa7\xed?'
p487
tp488
Rp489
ag4
(g8
S'K\xfb\xee$^T\xed?'
p490
tp491
Rp492
aF0.31580495834350586
aI1609
aS'kernel = 0 degree'
p493
aa(lp494
g4
(g8
S'c\x02i\x0c"\xda\xed?'
p495
tp496
Rp497
ag4
(g8
S'\xdeO\xf0y\xe3\x97\xed?'
p498
tp499
Rp500
aF0.3940250873565674
aI1609
aS'kernel = 0 degree'
p501
ag4
(g8
S'c\xf4\x00*8\xa7\xed?'
p502
tp503
Rp504
ag4
(g8
S'h\x0b\x90Z\xd7^\xed?'
p505
tp506
Rp507
aF0.3484828472137451
aI1609
aS'kernel = 0 degree'
p508
ag4
(g8
S'/&\x90\xc6 \xa2\xed?'
p509
tp510
Rp511
ag4
(g8
S'b\xfe\xe6D\xefR\xed?'
p512
tp513
Rp514
aF0.31435394287109375
aI1609
aS'kernel = 0 degree'
p515
aa(lp516
g4
(g8
S'/&\x90\xc6 \xa2\xed?'
p517
tp518
Rp519
ag4
(g8
S'\x8a\x90"}#@\xed?'
p520
tp521
Rp522
aF0.39405202865600586
aI1609
aS'kernel = 0 degree'
p523
ag4
(g8
S'\xfcW\x1fc\t\x9d\xed?'
p524
tp525
Rp526
ag4
(g8
S'B\xa5`\x07\xc2;\xed?'
p527
tp528
Rp529
aF0.3535759449005127
aI1609
aS'kernel = 0 degree'
p530
ag4
(g8
S'/\x18(\xe46o\xed?'
p531
tp532
Rp533
ag4
(g8
S'\n]\xa7\xd0u\n\xed?'
p534
tp535
Rp536
aF0.31516385078430176
aI1609
aS'kernel = 0 degree'
p537
aa(lp538
g4
(g8
S'\x96\xd7\ra\xae\xf8\xed?'
p539
tp540
Rp541
ag4
(g8
S'.\xba\xe8\xa2\x8b\xae\xed?'
p542
tp543
Rp544
aF0.39551496505737305
aI1609
aS'kernel = 0 degree'
p545
ag4
(g8
S'\xfce\x87E\xf3\xcf\xed?'
p546
tp547
Rp548
ag4
(g8
S'\x1a\x7f n\x83\x84\xed?'
p549
tp550
Rp551
aF0.3527848720550537
aI1609
aS'kernel = 0 degree'
p552
ag4
(g8
S'c\t\x9d\xfd\x96\xf3\xed?'
p553
tp554
Rp555
ag4
(g8
S'\x94\x9a\xe4\\\x00\xaa\xed?'
p556
tp557
Rp558
aF0.31325197219848633
aI1609
aS'kernel = 0 degree'
p559
aa(lp560
g4
(g8
S'\xfc^ST~\xb6\xed?'
p561
tp562
Rp563
ag4
(g8
S'7*\xe8\xfcnb\xed?'
p564
tp565
Rp566
aF0.39333677291870117
aI1609
aS'kernel = 0 degree'
p567
ag4
(g8
S'c\xfb4\x1b\xad\xc0\xed?'
p568
tp569
Rp570
ag4
(g8
S'\x1b\x92\xa3\x03\x14n\xed?'
p571
tp572
Rp573
aF0.3512270450592041
aI1609
aS'kernel = 0 degree'
p574
ag4
(g8
S'b\xed\xcc8\xc3\x8d\xed?'
p575
tp576
Rp577
ag4
(g8
S'\x88{\xa11\xd01\xed?'
p578
tp579
Rp580
aF0.3181619644165039
aI1609
aS'kernel = 0 degree'
p581
aa(lp582
g4
(g8
S'\xc9{F\x1d\x08e\xed?'
p583
tp584
Rp585
ag4
(g8
S'{\xdbH\xef[\x06\xed?'
p586
tp587
Rp588
aF0.5758888721466064
aI1609
aS'kernel = 0 degree'
p589
ag4
(g8
S'\x95\xa6\xa1\xc8{F\xed?'
p590
tp591
Rp592
ag4
(g8
S'\x7f\xce\x01\xc6\xf8\xe7\xec?'
p593
tp594
Rp595
aF0.34192490577697754
aI1609
aS'kernel = 0 degree'
p596
ag4
(g8
S'\x95\xad\xd5\xb9\xf0_\xed?'
p597
tp598
Rp599
ag4
(g8
S'K\xdd\x97\xc7V\x04\xed?'
p600
tp601
Rp602
aF0.3128781318664551
aI1609
aS'kernel = 0 degree'
p603
aa(lp604
g4
(g8
S'\x96\xd7\ra\xae\xf8\xed?'
p605
tp606
Rp607
ag4
(g8
S'.\xba\xe8\xa2\x8b\xae\xed?'
p608
tp609
Rp610
aF0.39728498458862305
aI1609
aS'kernel = 0 degree'
p611
ag4
(g8
S'\xc9\x9eJ\xd3P\xe4\xed?'
p612
tp613
Rp614
ag4
(g8
S'\x0f\xd4\xb8\xc3%\x98\xed?'
p615
tp616
Rp617
aF0.3530268669128418
aI1609
aS'kernel = 0 degree'
p618
ag4
(g8
S'c\xfb4\x1b\xad\xc0\xed?'
p619
tp620
Rp621
ag4
(g8
S'\x12\x08\xdc+kh\xed?'
p622
tp623
Rp624
aF0.3105158805847168
aI1609
aS'kernel = 0 degree'
p625
aa(lp626
g4
(g8
S'\xc9\x89\xae\xff\xf1\x97\xed?'
p627
tp628
Rp629
ag4
(g8
S'\xfd$\x19.\x7f>\xed?'
p630
tp631
Rp632
aF0.3888068199157715
aI1609
aS'kernel = 0 degree'
p633
ag4
(g8
S'\x96\xb4\t\xabey\xed?'
p634
tp635
Rp636
ag4
(g8
S'X\xfa\xac$u\x1a\xed?'
p637
tp638
Rp639
aF0.35400915145874023
aI1609
aS'kernel = 0 degree'
p640
ag4
(g8
S'\x96\xb4\t\xabey\xed?'
p641
tp642
Rp643
ag4
(g8
S'\xad\n\x9au\x0f\x14\xed?'
p644
tp645
Rp646
aF0.31830883026123047
aI1609
aS'kernel = 0 degree'
p647
aa(lp648
g4
(g8
S'\xfce\x87E\xf3\xcf\xed?'
p649
tp650
Rp651
ag4
(g8
S'\xb60A\nl{\xed?'
p652
tp653
Rp654
aF0.39371800422668457
aI1609
aS'kernel = 0 degree'
p655
ag4
(g8
S'c\xfb4\x1b\xad\xc0\xed?'
p656
tp657
Rp658
ag4
(g8
S'\x1b\x92\xa3\x03\x14n\xed?'
p659
tp660
Rp661
aF0.3526899814605713
aI1609
aS'kernel = 0 degree'
p662
ag4
(g8
S'c\xf4\x00*8\xa7\xed?'
p663
tp664
Rp665
ag4
(g8
S'\x05\x0f\x95+\x8bL\xed?'
p666
tp667
Rp668
aF0.31459808349609375
aI1609
aS'kernel = 0 degree'
p669
aa(lp670
g4
(g8
S'\xc9\x89\xae\xff\xf1\x97\xed?'
p671
tp672
Rp673
ag4
(g8
S'\x8el\x9f\xbb^6\xed?'
p674
tp675
Rp676
aF0.388775110244751
aI1609
aS'kernel = 0 degree'
p677
ag4
(g8
S'/\x1f\\\xd5\xab\x88\xed?'
p678
tp679
Rp680
ag4
(g8
S'\x08\xef\xf4\\&$\xed?'
p681
tp682
Rp683
aF0.5381588935852051
aI1609
aS'kernel = 0 degree'
p684
ag4
(g8
S'\xfcI\xb7\x80\x1fj\xed?'
p685
tp686
Rp687
ag4
(g8
S'\xf1q\xdf-\x85\xfe\xec?'
p688
tp689
Rp690
aF0.31379008293151855
aI1609
aS'kernel = 0 degree'
p691
aa(lp692
g4
(g8
S'/&\x90\xc6 \xa2\xed?'
p693
tp694
Rp695
ag4
(g8
S'\x8a\x90"}#@\xed?'
p696
tp697
Rp698
aF0.3952789306640625
aI1609
aS'kernel = 0 degree'
p699
ag4
(g8
S'/\x1f\\\xd5\xab\x88\xed?'
p700
tp701
Rp702
ag4
(g8
S'QB\xff\xf5\xf8 \xed?'
p703
tp704
Rp705
aF0.3536810874938965
aI1609
aS'kernel = 0 degree'
p706
ag4
(g8
S'\xc9{F\x1d\x08e\xed?'
p707
tp708
Rp709
ag4
(g8
S'\xbc\xbd\xa9]\n\xf8\xec?'
p710
tp711
Rp712
aF0.31547021865844727
aI1609
aS'kernel = 0 degree'
p713
aa(lp714
g4
(g8
S'/\x11\xf4\xf2\xc1U\xed?'
p715
tp716
Rp717
ag4
(g8
S'\xdb9X\xb3\xc4\xf8\xec?'
p718
tp719
Rp720
aF0.38707399368286133
aI1609
aS'kernel = 0 degree'
p721
ag4
(g8
S'\xc8t\x12,\x93K\xed?'
p722
tp723
Rp724
ag4
(g8
S'\x8e;\\\x82\xd9\xe9\xec?'
p725
tp726
Rp727
aF0.34853291511535645
aI1609
aS'kernel = 0 degree'
p728
ag4
(g8
S'/\x03\x8c\x10\xd8"\xed?'
p729
tp730
Rp731
ag4
(g8
S'~\xea\xc5|\xea\xc5\xec?'
p732
tp733
Rp734
aF0.3146228790283203
aI1609
aS'kernel = 0 degree'
p735
aa(lp736
g4
(g8
S'\xc9\x82z\x0e}~\xed?'
p737
tp738
Rp739
ag4
(g8
S'\r\x12\xa9sj\x19\xed?'
p740
tp741
Rp742
aF0.39278101921081543
aI1609
aS'kernel = 0 degree'
p743
ag4
(g8
S'\xfcP\xebq\x94\x83\xed?'
p744
tp745
Rp746
ag4
(g8
S'\xdf8e\xc6\xd6\x1f\xed?'
p747
tp748
Rp749
aF0.3559529781341553
aI1609
aS'kernel = 0 degree'
p750
ag4
(g8
S'\xc9{F\x1d\x08e\xed?'
p751
tp752
Rp753
ag4
(g8
S'\x85h\xe4\x8e\x02\x02\xed?'
p754
tp755
Rp756
aF0.3168189525604248
aI1609
aS'kernel = 0 degree'
p757
aa(lp758
g4
(g8
S'\x96\xb4\t\xabey\xed?'
p759
tp760
Rp761
ag4
(g8
S'd8\xa3\xce\xd9#\xed?'
p762
tp763
Rp764
aF0.5778658390045166
aI1609
aS'kernel = 0 degree'
p765
ag4
(g8
S'b\xe6\x98GNt\xed?'
p766
tp767
Rp768
ag4
(g8
S'0\xc0W\xe7a\x19\xed?'
p769
tp770
Rp771
aF0.5440280437469482
aI1609
aS'kernel = 0 degree'
p772
ag4
(g8
S'/&\x90\xc6 \xa2\xed?'
p773
tp774
Rp775
ag4
(g8
S',\x02l\xbd\x0fO\xed?'
p776
tp777
Rp778
aF0.4982309341430664
aI1609
aS'kernel = 0 degree'
p779
aa(lp780
g4
(g8
S'\xfcW\x1fc\t\x9d\xed?'
p781
tp782
Rp783
ag4
(g8
S'c\xb3\xa0\xdas2\xed?'
p784
tp785
Rp786
aF0.3926100730895996
aI1609
aS'kernel = 0 degree'
p787
ag4
(g8
S'\xfcP\xebq\x94\x83\xed?'
p788
tp789
Rp790
ag4
(g8
S'\x85\x0fu>\x02\x14\xed?'
p791
tp792
Rp793
aF0.35036206245422363
aI1609
aS'kernel = 0 degree'
p794
ag4
(g8
S'/&\x90\xc6 \xa2\xed?'
p795
tp796
Rp797
ag4
(g8
S'\x98\x10\xd3\xa4\xfc9\xed?'
p798
tp799
Rp800
aF0.31521010398864746
aI1609
aS'kernel = 0 degree'
p801
aa(lp802
g4
(g8
S'\x96\xd0\xd9o9\xdf\xed?'
p803
tp804
Rp805
ag4
(g8
S'\xe4\xe9\x00\x13X\x8e\xed?'
p806
tp807
Rp808
aF0.3960390090942383
aI1609
aS'kernel = 0 degree'
p809
ag4
(g8
S'\xc9\x97\x16\xe2\xdb\xca\xed?'
p810
tp811
Rp812
ag4
(g8
S'\xb3\x1da\x87\xcdx\xed?'
p813
tp814
Rp815
aF0.3600029945373535
aI1609
aS'kernel = 0 degree'
p816
ag4
(g8
S'\xc9\x82z\x0e}~\xed?'
p817
tp818
Rp819
ag4
(g8
S'\x0e\x19{\xed\xf2#\xed?'
p820
tp821
Rp822
aF0.31362295150756836
aI1609
aS'kernel = 0 degree'
p823
aa(lp824
g4
(g8
S'\xfcW\x1fc\t\x9d\xed?'
p825
tp826
Rp827
ag4
(g8
S'\xbbjw\xa0\x7f3\xed?'
p828
tp829
Rp830
aF0.3917250633239746
aI1609
aS'kernel = 0 degree'
p831
ag4
(g8
S'\x96\xc2q\x8dO\xac\xed?'
p832
tp833
Rp834
ag4
(g8
S'\xb0e\x87\x1b\xdbB\xed?'
p835
tp836
Rp837
aF0.3534209728240967
aI1609
aS'kernel = 0 degree'
p838
ag4
(g8
S'/\x1f\\\xd5\xab\x88\xed?'
p839
tp840
Rp841
ag4
(g8
S'3\xea\xa9\xdc-\x16\xed?'
p842
tp843
Rp844
aF0.31812500953674316
aI1609
aS'kernel = 0 degree'
p845
aa(lp846
g4
(g8
S'\xfcW\x1fc\t\x9d\xed?'
p847
tp848
Rp849
ag4
(g8
S'3\xef\xc5\x8a\xd4B\xed?'
p850
tp851
Rp852
aF0.392833948135376
aI1609
aS'kernel = 0 degree'
p853
ag4
(g8
S'\xc9\x89\xae\xff\xf1\x97\xed?'
p854
tp855
Rp856
ag4
(g8
S'\x18I\xf0\x85{<\xed?'
p857
tp858
Rp859
aF0.3501429557800293
aI1609
aS'kernel = 0 degree'
p860
ag4
(g8
S'\xfb\x11\x17\xf7w\x9e\xec?'
p861
tp862
Rp863
ag4
(g8
S'i\x85\xcd\x81D+\xec?'
p864
tp865
Rp866
aF0.4927802085876465
aI1609
aS'kernel = 1 degree'
p867
aa(lp868
g4
(g8
S'/\x1f\\\xd5\xab\x88\xed?'
p869
tp870
Rp871
ag4
(g8
S'\x08\xef\xf4\\&$\xed?'
p872
tp873
Rp874
aF0.39121103286743164
aI1609
aS'kernel = 0 degree'
p875
ag4
(g8
S'\xfcW\x1fc\t\x9d\xed?'
p876
tp877
Rp878
ag4
(g8
S'C\xa5`\x07\xc2;\xed?'
p879
tp880
Rp881
aF0.34798502922058105
aI1609
aS'kernel = 0 degree'
p882
ag4
(g8
S'\xfcP\xebq\x94\x83\xed?'
p883
tp884
Rp885
ag4
(g8
S'\x8b\x05\x92Z\xa6\x1c\xed?'
p886
tp887
Rp888
aF0.3130989074707031
aI1609
aS'kernel = 0 degree'
p889
aa(lp890
g4
(g8
S'\xc9\x82z\x0e}~\xed?'
p891
tp892
Rp893
ag4
(g8
S'\x0c\x12\xa9sj\x19\xed?'
p894
tp895
Rp896
aF0.38987302780151367
aI1609
aS'kernel = 0 degree'
p897
ag4
(g8
S'\xfcI\xb7\x80\x1fj\xed?'
p898
tp899
Rp900
ag4
(g8
S'\x8b.\xba\xe8\xa2\x0b\xed?'
p901
tp902
Rp903
aF0.5343039035797119
aI1609
aS'kernel = 0 degree'
p904
ag4
(g8
S'\xfcP\xebq\x94\x83\xed?'
p905
tp906
Rp907
ag4
(g8
S'\x95\xd3\x14k\xc7\x1e\xed?'
p908
tp909
Rp910
aF0.3189048767089844
aI1609
aS'kernel = 0 degree'
p911
aa(lp912
g4
(g8
S'b\xe6\x98GNt\xed?'
p913
tp914
Rp915
ag4
(g8
S'\xe8\xe5\xae\x18\xd7-\xed?'
p916
tp917
Rp918
aF0.38996100425720215
aI1609
aS'kernel = 0 degree'
p919
ag4
(g8
S'\x96\xb4\t\xabey\xed?'
p920
tp921
Rp922
ag4
(g8
S'\x13?B\xa8\xf93\xed?'
p923
tp924
Rp925
aF0.35642099380493164
aI1609
aS'kernel = 0 degree'
p926
ag4
(g8
S'\xc9{F\x1d\x08e\xed?'
p927
tp928
Rp929
ag4
(g8
S'\x07"\xf5 3\x15\xed?'
p930
tp931
Rp932
aF0.31368088722229004
aI1609
aS'kernel = 0 degree'
p933
aa(lp934
g4
(g8
S'\xfc;O\x9e57\xed?'
p935
tp936
Rp937
ag4
(g8
S'\x0b\x9b\x03\x89V\xd8\xec?'
p938
tp939
Rp940
aF0.38802480697631836
aI1609
aS'kernel = 0 degree'
p941
ag4
(g8
S'b\xca\xc8\x82z\x0e\xed?'
p942
tp943
Rp944
ag4
(g8
S'\x9bDZN\xfb\xa8\xec?'
p945
tp946
Rp947
aF0.34424495697021484
aI1609
aS'kernel = 0 degree'
p948
ag4
(g8
S'.\xf5#.\xee\xef\xec?'
p949
tp950
Rp951
ag4
(g8
S'\xda\x0bgYO\x8b\xec?'
p952
tp953
Rp954
aF0.5040559768676758
aI1609
aS'kernel = 0 degree'
p955
aa(lp956
g4
(g8
S'\xfcI\xb7\x80\x1fj\xed?'
p957
tp958
Rp959
ag4
(g8
S'\xb9\x80\xd7\xdb\xe8\x0f\xed?'
p960
tp961
Rp962
aF0.3953099250793457
aI1609
aS'kernel = 0 degree'
p963
ag4
(g8
S'\xc8t\x12,\x93K\xed?'
p964
tp965
Rp966
ag4
(g8
S'S\x16.\x80\x84\xf0\xec?'
p967
tp968
Rp969
aF0.3528878688812256
aI1609
aS'kernel = 0 degree'
p970
ag4
(g8
S'\xc9\x82z\x0e}~\xed?'
p971
tp972
Rp973
ag4
(g8
S');\xb6\x91\xc5\x1f\xed?'
p974
tp975
Rp976
aF0.31416988372802734
aI1609
aS'kernel = 0 degree'
p977
aa(lp978
g4
(g8
S'/&\x90\xc6 \xa2\xed?'
p979
tp980
Rp981
ag4
(g8
S'nZq\xef$K\xed?'
p982
tp983
Rp984
aF0.3924579620361328
aI1609
aS'kernel = 0 degree'
p985
ag4
(g8
S'/&\x90\xc6 \xa2\xed?'
p986
tp987
Rp988
ag4
(g8
S"\xee\x89's(J\xed?"
p989
tp990
Rp991
aF0.35427308082580566
aI1609
aS'kernel = 0 degree'
p992
ag4
(g8
S'b\xe6\x98GNt\xed?'
p993
tp994
Rp995
ag4
(g8
S'\xc1\xect>T\x18\xed?'
p996
tp997
Rp998
aF0.3101379871368408
aI1609
aS'kernel = 0 degree'
p999
aa(lp1000
g4
(g8
S'\xc9\x90\xe2\xf0f\xb1\xed?'
p1001
tp1002
Rp1003
ag4
(g8
S'\x0b\xc5\xc8\xc5aK\xed?'
p1004
tp1005
Rp1006
aF0.3956489562988281
aI1609
aS'kernel = 0 degree'
p1007
ag4
(g8
S'/&\x90\xc6 \xa2\xed?'
p1008
tp1009
Rp1010
ag4
(g8
S'p\xe0J}\xf38\xed?'
p1011
tp1012
Rp1013
aF0.35569095611572266
aI1609
aS'kernel = 0 degree'
p1014
ag4
(g8
S'/\x1f\\\xd5\xab\x88\xed?'
p1015
tp1016
Rp1017
ag4
(g8
S'\x15\x15\x15\x15\x15\x15\xed?'
p1018
tp1019
Rp1020
aF0.31372618675231934
aI1609
aS'kernel = 0 degree'
p1021
aa(lp1022
g4
(g8
S'0-\xc4\xb7\x95\xbb\xed?'
p1023
tp1024
Rp1025
ag4
(g8
S'\x89e\xea\xe3Ao\xed?'
p1026
tp1027
Rp1028
aF0.3911609649658203
aI1609
aS'kernel = 0 degree'
p1029
ag4
(g8
S'/&\x90\xc6 \xa2\xed?'
p1030
tp1031
Rp1032
ag4
(g8
S'\xe0U\xec\xe6\x00Q\xed?'
p1033
tp1034
Rp1035
aF0.35724377632141113
aI1609
aS'kernel = 0 degree'
p1036
ag4
(g8
S'/&\x90\xc6 \xa2\xed?'
p1037
tp1038
Rp1039
ag4
(g8
S'b\xfe\xe6D\xefR\xed?'
p1040
tp1041
Rp1042
aF0.3086719512939453
aI1609
aS'kernel = 0 degree'
p1043
aa(lp1044
g4
(g8
S'\x95\xad\xd5\xb9\xf0_\xed?'
p1045
tp1046
Rp1047
ag4
(g8
S'/~\x92\xf6,\x02\xed?'
p1048
tp1049
Rp1050
aF0.3937389850616455
aI1609
aS'kernel = 0 degree'
p1051
ag4
(g8
S'b\xdfdV\xd9Z\xed?'
p1052
tp1053
Rp1054
ag4
(g8
S'R]b\xd6B\x01\xed?'
p1055
tp1056
Rp1057
aF0.3448328971862793
aI1609
aS'kernel = 0 degree'
p1058
ag4
(g8
S'\x95\xa6\xa1\xc8{F\xed?'
p1059
tp1060
Rp1061
ag4
(g8
S'y\xd7\x1f0\xda\xe6\xec?'
p1062
tp1063
Rp1064
aF0.3139350414276123
aI1609
aS'kernel = 0 degree'
p1065
aa(lp1066
g4
(g8
S'\x96\xbb=\x9c\xda\x92\xed?'
p1067
tp1068
Rp1069
ag4
(g8
S'\xd2m\x91t[$\xed?'
p1070
tp1071
Rp1072
aF0.3953359127044678
aI1609
aS'kernel = 0 degree'
p1073
ag4
(g8
S'\x96\xb4\t\xabey\xed?'
p1074
tp1075
Rp1076
ag4
(g8
S'\xbc\xfa[\xe7\x92\x03\xed?'
p1077
tp1078
Rp1079
aF0.3508908748626709
aI1609
aS'kernel = 0 degree'
p1080
ag4
(g8
S'b\xe6\x98GNt\xed?'
p1081
tp1082
Rp1083
ag4
(g8
S'\xbc\xd0\xf8V\x92\xf9\xec?'
p1084
tp1085
Rp1086
aF0.31445789337158203
aI1609
aS'kernel = 0 degree'
p1087
aa(lp1088
g4
(g8
S'\x96\xd7\ra\xae\xf8\xed?'
p1089
tp1090
Rp1091
ag4
(g8
S'.\xba\xe8\xa2\x8b\xae\xed?'
p1092
tp1093
Rp1094
aF0.3956120014190674
aI1609
aS'kernel = 0 degree'
p1095
ag4
(g8
S'0;,\x9a\x7f\xee\xed?'
p1096
tp1097
Rp1098
ag4
(g8
S']\x00\xbfr\xc4\xa3\xed?'
p1099
tp1100
Rp1101
aF0.3543839454650879
aI1609
aS'kernel = 0 degree'
p1102
ag4
(g8
S'04\xf8\xa8\n\xd5\xed?'
p1103
tp1104
Rp1105
ag4
(g8
S'\x89\xcdhaI{\xed?'
p1106
tp1107
Rp1108
aF0.3145580291748047
aI1609
aS'kernel = 0 degree'
p1109
aas.