(dp0
S'german'
p1
(lp2
(lp3
cnumpy.core.multiarray
scalar
p4
(cnumpy
dtype
p5
(S'f8'
p6
I0
I1
tp7
Rp8
(I3
S'<'
p9
NNNI-1
I-1
I0
tp10
bS'V\x0e-\xb2\x9d\xef\xe7?'
p11
tp12
Rp13
ag4
(g8
S'F}g\xa3\xbe\xb3\xe1?'
p14
tp15
Rp16
aF0.19992709159851074
aI250
aS'kernel = 1 degree'
p17
ag4
(g8
S'\xaeG\xe1z\x14\xae\xe7?'
p18
tp19
Rp20
ag4
(g8
S'{\t\xed%\xb4\x97\xe0?'
p21
tp22
Rp23
aF0.16128897666931152
aI250
aS'kernel = 0 degree'
p24
ag4
(g8
S'\x0e-\xb2\x9d\xef\xa7\xe6?'
p25
tp26
Rp27
ag4
(g8
S'\x84\x1eB\x0f\xa1\x87\xe0?'
p28
tp29
Rp30
aF0.1671299934387207
aI250
aS'kernel = 0 degree'
p31
aa(lp32
g4
(g8
S'\x06\x81\x95C\x8bl\xe7?'
p33
tp34
Rp35
ag4
(g8
S'\x8f4G\x9a#\xcd\xe1?'
p36
tp37
Rp38
aF0.2235548496246338
aI250
aS'kernel = 0 degree'
p39
ag4
(g8
S'\xb6\xf3\xfd\xd4x\xe9\xe6?'
p40
tp41
Rp42
ag4
(g8
S'\xe2^\x05\xb3\xa4\x1c\xe0?'
p43
tp44
Rp45
aF0.23584318161010742
aI250
aS'kernel = 0 degree'
p46
ag4
(g8
S'\xbaI\x0c\x02+\x87\xe6?'
p47
tp48
Rp49
ag4
(g8
S'"\x97\x15\x03%\xbc\xe1?'
p50
tp51
Rp52
aF0.2016911506652832
aI250
aS'kernel = 0 degree'
p53
aa(lp54
g4
(g8
S'\x02+\x87\x16\xd9\xce\xe7?'
p55
tp56
Rp57
ag4
(g8
S'\xdf\xf7}\xdf\xf7}\xdf?'
p58
tp59
Rp60
aF0.24197912216186523
aI250
aS'kernel = 0 degree'
p61
ag4
(g8
S'\xfa~j\xbct\x93\xe8?'
p62
tp63
Rp64
ag4
(g8
S'\xff\xff\xff\xff\xff\x7f\xe1?'
p65
tp66
Rp67
aF0.17769289016723633
aI250
aS'kernel = 0 degree'
p68
ag4
(g8
S'\xaeG\xe1z\x14\xae\xe7?'
p69
tp70
Rp71
ag4
(g8
S'\x96{\x1aa\xb9\xa7\xe1?'
p72
tp73
Rp74
aF0.1824190616607666
aI250
aS'kernel = 0 degree'
p75
aa(lp76
g4
(g8
S'V\x0e-\xb2\x9d\xef\xe7?'
p77
tp78
Rp79
ag4
(g8
S'\x17\xf4\x05}A_\xe0?'
p80
tp81
Rp82
aF0.17508792877197266
aI250
aS'kernel = 1 degree'
p83
ag4
(g8
S'\x02+\x87\x16\xd9\xce\xe7?'
p84
tp85
Rp86
ag4
(g8
S'\xf0\xf0\xf0\xf0\xf0\xf0\xe0?'
p87
tp88
Rp89
aF0.13064289093017578
aI250
aS'kernel = 1 degree'
p90
ag4
(g8
S'V\x0e-\xb2\x9d\xef\xe7?'
p91
tp92
Rp93
ag4
(g8
S'\x11\x11\x11\x11\x11\x11\xe1?'
p94
tp95
Rp96
aF0.14879202842712402
aI250
aS'kernel = 0 degree'
p97
aa(lp98
g4
(g8
S'\xa6\x9b\xc4 \xb0r\xe8?'
p99
tp100
Rp101
ag4
(g8
S'\x91k"\x90k"\xe0?'
p102
tp103
Rp104
aF0.1724259853363037
aI250
aS'kernel = 0 degree'
p105
ag4
(g8
S'\x17\xd9\xce\xf7S\xe3\xe5?'
p106
tp107
Rp108
ag4
(g8
S'`\xa8\xa6c.\x11\xde?'
p109
tp110
Rp111
aF0.12636089324951172
aI250
aS'kernel = 1 degree'
p112
ag4
(g8
S'\x0e-\xb2\x9d\xef\xa7\xe6?'
p113
tp114
Rp115
ag4
(g8
S'\x11f\xbb\x10f\xbb\xe0?'
p116
tp117
Rp118
aF0.12544488906860352
aI250
aS'kernel = 1 degree'
p119
aa(lp120
g4
(g8
S'\xa6\x9b\xc4 \xb0r\xe8?'
p121
tp122
Rp123
ag4
(g8
S'K7\x89A`\xe5\xe0?'
p124
tp125
Rp126
aF0.15654683113098145
aI250
aS'kernel = 0 degree'
p127
ag4
(g8
S'V\x0e-\xb2\x9d\xef\xe7?'
p128
tp129
Rp130
ag4
(g8
S'\xc5\xfb\x91\xd3|\xad\xde?'
p131
tp132
Rp133
aF0.1389930248260498
aI250
aS'kernel = 0 degree'
p134
ag4
(g8
S'^\xbaI\x0c\x02+\xe7?'
p135
tp136
Rp137
ag4
(g8
S'\x9f\xf4I\x9f\xf4I\xdf?'
p138
tp139
Rp140
aF0.1239938735961914
aI250
aS'kernel = 0 degree'
p141
aa(lp142
g4
(g8
S'\x06\x81\x95C\x8bl\xe7?'
p143
tp144
Rp145
ag4
(g8
S'\x19\x04V\x0e-\xb2\xdd?'
p146
tp147
Rp148
aF0.140671968460083
aI250
aS'kernel = 1 degree'
p149
ag4
(g8
S'\x02+\x87\x16\xd9\xce\xe7?'
p150
tp151
Rp152
ag4
(g8
S'\xf0\x03?\xf0\x03?\xe0?'
p153
tp154
Rp155
aF0.16004300117492676
aI250
aS'kernel = 0 degree'
p156
ag4
(g8
S'Zd;\xdfO\x8d\xe7?'
p157
tp158
Rp159
ag4
(g8
S'\x9e\xe7y\x9e\xe7y\xde?'
p160
tp161
Rp162
aF0.11200284957885742
aI250
aS'kernel = 1 degree'
p163
aa(lp164
g4
(g8
S'\xa6\x9b\xc4 \xb0r\xe8?'
p165
tp166
Rp167
ag4
(g8
S'= Y\xe7\xca\x03\xe2?'
p168
tp169
Rp170
aF0.1533679962158203
aI250
aS'kernel = 1 degree'
p171
ag4
(g8
S'\xaa\xf1\xd2Mb\x10\xe8?'
p172
tp173
Rp174
ag4
(g8
S'\xe8@\xa2\x156\x07\xe2?'
p175
tp176
Rp177
aF0.12981414794921875
aI250
aS'kernel = 1 degree'
p178
ag4
(g8
S'sh\x91\xed|?\xe5?'
p179
tp180
Rp181
ag4
(g8
S'\xaa\xaa\xaa\xaa\xaa\xaa\xda?'
p182
tp183
Rp184
aF0.12369799613952637
aI250
aS'kernel = 1 degree'
p185
aa(lp186
g4
(g8
S'\xb2\x9d\xef\xa7\xc6K\xe7?'
p187
tp188
Rp189
ag4
(g8
S']\xd7u]\xd7u\xdd?'
p190
tp191
Rp192
aF0.1582028865814209
aI250
aS'kernel = 0 degree'
p193
ag4
(g8
S'V\x0e-\xb2\x9d\xef\xe7?'
p194
tp195
Rp196
ag4
(g8
S'Ls\x17\xfcU\x9c\xe0?'
p197
tp198
Rp199
aF0.13409209251403809
aI250
aS'kernel = 0 degree'
p200
ag4
(g8
S'#\xdb\xf9~j\xbc\xe4?'
p201
tp202
Rp203
ag4
(g8
S's\xda@\xa7\rt\xda?'
p204
tp205
Rp206
aF0.12228918075561523
aI250
aS'kernel = 1 degree'
p207
aa(lp208
g4
(g8
S'\xa6\x9b\xc4 \xb0r\xe8?'
p209
tp210
Rp211
ag4
(g8
S'= Y\xe7\xca\x03\xe2?'
p212
tp213
Rp214
aF0.1346898078918457
aI250
aS'kernel = 1 degree'
p215
ag4
(g8
S'\x06\x81\x95C\x8bl\xe7?'
p216
tp217
Rp218
ag4
(g8
S'[\x84\xfc5;j\xe1?'
p219
tp220
Rp221
aF0.12500691413879395
aI250
aS'kernel = 1 degree'
p222
ag4
(g8
S'\n\xd7\xa3p=\n\xe7?'
p223
tp224
Rp225
ag4
(g8
S'u\xd1E\x17]t\xe1?'
p226
tp227
Rp228
aF0.14419198036193848
aI250
aS'kernel = 0 degree'
p229
aa(lp230
g4
(g8
S'B`\xe5\xd0"\xdb\xe9?'
p231
tp232
Rp233
ag4
(g8
S'T\\2\x04\xebh\xe3?'
p234
tp235
Rp236
aF0.14086508750915527
aI250
aS'kernel = 0 degree'
p237
ag4
(g8
S'V\x0e-\xb2\x9d\xef\xe7?'
p238
tp239
Rp240
ag4
(g8
S'\xd0\xba\xc1\x14\xf9\xac\xdb?'
p241
tp242
Rp243
aF0.12891697883605957
aI250
aS'kernel = 1 degree'
p244
ag4
(g8
S'\x9e\xef\xa7\xc6K7\xe9?'
p245
tp246
Rp247
ag4
(g8
S'5\xd2a#\x1d6\xe2?'
p248
tp249
Rp250
aF0.12850594520568848
aI250
aS'kernel = 1 degree'
p251
aa(lp252
g4
(g8
S'\xa6\x9b\xc4 \xb0r\xe8?'
p253
tp254
Rp255
ag4
(g8
S'K7\x89A`\xe5\xe0?'
p256
tp257
Rp258
aF0.14725685119628906
aI250
aS'kernel = 0 degree'
p259
ag4
(g8
S'\xaa\xf1\xd2Mb\x10\xe8?'
p260
tp261
Rp262
ag4
(g8
S'-\x19\x82u\xb4y\xdf?'
p263
tp264
Rp265
aF0.1298058032989502
aI250
aS'kernel = 0 degree'
p266
ag4
(g8
S'\x02+\x87\x16\xd9\xce\xe7?'
p267
tp268
Rp269
ag4
(g8
S'\x8aK\x86`\x1dm\xde?'
p270
tp271
Rp272
aF0.12802600860595703
aI250
aS'kernel = 0 degree'
p273
aa(lp274
g4
(g8
S'\xaeG\xe1z\x14\xae\xe7?'
p275
tp276
Rp277
ag4
(g8
S'\xf0\x07\xfc\x01\x7f\xc0\xdf?'
p278
tp279
Rp280
aF0.13748908042907715
aI250
aS'kernel = 1 degree'
p281
ag4
(g8
S'\n\xd7\xa3p=\n\xe7?'
p282
tp283
Rp284
ag4
(g8
S'\xde{\xef\xbd\xf7\xde\xdb?'
p285
tp286
Rp287
aF0.08704900741577148
aI250
aS'kernel = 0 degree'
p288
ag4
(g8
S'\xb6\xf3\xfd\xd4x\xe9\xe6?'
p289
tp290
Rp291
ag4
(g8
S'\xd9\xce\xf7S\xe3\xa5\xdb?'
p292
tp293
Rp294
aF0.12326788902282715
aI250
aS'kernel = 0 degree'
p295
aa(lp296
g4
(g8
S'\xfe\xd4x\xe9&1\xe8?'
p297
tp298
Rp299
ag4
(g8
S',\x15\xb1T\xc4R\xe1?'
p300
tp301
Rp302
aF0.14577102661132812
aI250
aS'kernel = 0 degree'
p303
ag4
(g8
S'\xb2\x9d\xef\xa7\xc6K\xe7?'
p304
tp305
Rp306
ag4
(g8
S'P\x07uP\x07u\xe0?'
p307
tp308
Rp309
aF0.09527897834777832
aI250
aS'kernel = 0 degree'
p310
ag4
(g8
S'\x02+\x87\x16\xd9\xce\xe7?'
p311
tp312
Rp313
ag4
(g8
S'}\xf0\xc1\x07\x1f|\xe0?'
p314
tp315
Rp316
aF0.1262800693511963
aI250
aS'kernel = 0 degree'
p317
aa(lp318
g4
(g8
S'\xfe\xd4x\xe9&1\xe8?'
p319
tp320
Rp321
ag4
(g8
S'-\x15\xb1T\xc4R\xe1?'
p322
tp323
Rp324
aF0.14113092422485352
aI250
aS'kernel = 0 degree'
p325
ag4
(g8
S'\xaeG\xe1z\x14\xae\xe7?'
p326
tp327
Rp328
ag4
(g8
S'\x1c\xc7q\x1c\xc7q\xdc?'
p329
tp330
Rp331
aF0.13042998313903809
aI250
aS'kernel = 0 degree'
p332
ag4
(g8
S'\xb6\xf3\xfd\xd4x\xe9\xe6?'
p333
tp334
Rp335
ag4
(g8
S'2g\xcc\x19s\xc6\xdc?'
p336
tp337
Rp338
aF0.10015392303466797
aI250
aS'kernel = 1 degree'
p339
aa(lp340
g4
(g8
S'\xaa\xf1\xd2Mb\x10\xe8?'
p341
tp342
Rp343
ag4
(g8
S'B\x1d\xd4A\x1d\xd4\xe1?'
p344
tp345
Rp346
aF0.06560587882995605
aI250
aS'kernel = 1 degree'
p347
ag4
(g8
S'Zd;\xdfO\x8d\xe7?'
p348
tp349
Rp350
ag4
(g8
S'\x93$I\x92$I\xe2?'
p351
tp352
Rp353
aF0.061308860778808594
aI250
aS'kernel = 1 degree'
p354
ag4
(g8
S'\x0e-\xb2\x9d\xef\xa7\xe6?'
p355
tp356
Rp357
ag4
(g8
S'\x11f\xbb\x10f\xbb\xe0?'
p358
tp359
Rp360
aF0.13605904579162598
aI250
aS'kernel = 1 degree'
p361
aa(lp362
g4
(g8
S'\xaa\xf1\xd2Mb\x10\xe8?'
p363
tp364
Rp365
ag4
(g8
S'-\x19\x82u\xb4y\xdf?'
p366
tp367
Rp368
aF0.06753993034362793
aI250
aS'kernel = 1 degree'
p369
ag4
(g8
S'\xfe\xd4x\xe9&1\xe8?'
p370
tp371
Rp372
ag4
(g8
S'\x93\xe8=\x93\xe8=\xe3?'
p373
tp374
Rp375
aF0.07456803321838379
aI250
aS'kernel = 0 degree'
p376
ag4
(g8
S'\n\xd7\xa3p=\n\xe7?'
p377
tp378
Rp379
ag4
(g8
S'\x1c\xc7q\x1c\xc7q\xe0?'
p380
tp381
Rp382
aF0.06578516960144043
aI250
aS'kernel = 0 degree'
p383
aa(lp384
g4
(g8
S'\x06\x81\x95C\x8bl\xe7?'
p385
tp386
Rp387
ag4
(g8
S'C\x07\xec\xf6X\xcb\xe0?'
p388
tp389
Rp390
aF0.0660710334777832
aI250
aS'kernel = 1 degree'
p391
ag4
(g8
S'\xb2\x9d\xef\xa7\xc6K\xe7?'
p392
tp393
Rp394
ag4
(g8
S'~\xb1\xe4\x17K~\xe1?'
p395
tp396
Rp397
aF0.06398582458496094
aI250
aS'kernel = 1 degree'
p398
ag4
(g8
S'^\xbaI\x0c\x02+\xe7?'
p399
tp400
Rp401
ag4
(g8
S'\x1a\x9c\x8f\xc1\xf9\x18\xdc?'
p402
tp403
Rp404
aF0.05826902389526367
aI250
aS'kernel = 0 degree'
p405
aa(lp406
g4
(g8
S'\xfa~j\xbct\x93\xe8?'
p407
tp408
Rp409
ag4
(g8
S'\x92\x1b\xb9\x91\x1b\xb9\xe1?'
p410
tp411
Rp412
aF0.06849789619445801
aI250
aS'kernel = 1 degree'
p413
ag4
(g8
S'\xf6(\\\x8f\xc2\xf5\xe8?'
p414
tp415
Rp416
ag4
(g8
S'\xb0\x91\x0e\x1b\xe9\xb0\xe1?'
p417
tp418
Rp419
aF0.038372039794921875
aI250
aS'kernel = 0 degree'
p420
ag4
(g8
S'V\x0e-\xb2\x9d\xef\xe7?'
p421
tp422
Rp423
ag4
(g8
S'\x92$I\x92$I\xe2?'
p424
tp425
Rp426
aF0.05802798271179199
aI250
aS'kernel = 1 degree'
p427
aa(lp428
g4
(g8
S'V\x0e-\xb2\x9d\xef\xe7?'
p429
tp430
Rp431
ag4
(g8
S'W9\xb4\xc8v\xbe\xdf?'
p432
tp433
Rp434
aF0.06652688980102539
aI250
aS'kernel = 0 degree'
p435
ag4
(g8
S'\xf6(\\\x8f\xc2\xf5\xe8?'
p436
tp437
Rp438
ag4
(g8
S'\xecQ\xb8\x1e\x85\xeb\xe1?'
p439
tp440
Rp441
aF0.0613408088684082
aI250
aS'kernel = 1 degree'
p442
ag4
(g8
S'\xfa~j\xbct\x93\xe8?'
p443
tp444
Rp445
ag4
(g8
S'"5\xc1x+\xfb\xdc?'
p446
tp447
Rp448
aF0.03498101234436035
aI250
aS'kernel = 0 degree'
p449
aa(lp450
g4
(g8
S'\xfe\xd4x\xe9&1\xe8?'
p451
tp452
Rp453
ag4
(g8
S"H8\xa5y\xf1'\xe2?"
p454
tp455
Rp456
aF0.06693100929260254
aI250
aS'kernel = 0 degree'
p457
ag4
(g8
S'\xaeG\xe1z\x14\xae\xe7?'
p458
tp459
Rp460
ag4
(g8
S'v\xd4"\xe4\xaf\xd9\xe1?'
p461
tp462
Rp463
aF0.06205606460571289
aI250
aS'kernel = 0 degree'
p464
ag4
(g8
S'^\xbaI\x0c\x02+\xe7?'
p465
tp466
Rp467
ag4
(g8
S'\x9f\xf4I\x9f\xf4I\xdf?'
p468
tp469
Rp470
aF0.0596461296081543
aI250
aS'kernel = 0 degree'
p471
aa(lp472
g4
(g8
S'B`\xe5\xd0"\xdb\xe9?'
p473
tp474
Rp475
ag4
(g8
S'T\\2\x04\xebh\xe3?'
p476
tp477
Rp478
aF0.06812286376953125
aI250
aS'kernel = 0 degree'
p479
ag4
(g8
S'\xf6(\\\x8f\xc2\xf5\xe8?'
p480
tp481
Rp482
ag4
(g8
S'\x12\xc85\x11\xc85\xe1?'
p483
tp484
Rp485
aF0.06206798553466797
aI250
aS'kernel = 1 degree'
p486
ag4
(g8
S'\xa6\x9b\xc4 \xb0r\xe8?'
p487
tp488
Rp489
ag4
(g8
S'W\xd4\x15uE]\xe1?'
p490
tp491
Rp492
aF0.0589749813079834
aI250
aS'kernel = 0 degree'
p493
aa(lp494
g4
(g8
S'\x02+\x87\x16\xd9\xce\xe7?'
p495
tp496
Rp497
ag4
(g8
S'\xe7\xb1\x15A\xc3I\xdd?'
p498
tp499
Rp500
aF0.0656280517578125
aI250
aS'kernel = 1 degree'
p501
ag4
(g8
S'V\x0e-\xb2\x9d\xef\xe7?'
p502
tp503
Rp504
ag4
(g8
S'\x08\x04\x02\x81@ \xe0?'
p505
tp506
Rp507
aF0.03830409049987793
aI250
aS'kernel = 0 degree'
p508
ag4
(g8
S'\xaeG\xe1z\x14\xae\xe7?'
p509
tp510
Rp511
ag4
(g8
S'\x9d\xc1\n\x9d\xc1\n\xdd?'
p512
tp513
Rp514
aF0.03579282760620117
aI250
aS'kernel = 1 degree'
p515
aa(lp516
g4
(g8
S'\xa2E\xb6\xf3\xfd\xd4\xe8?'
p517
tp518
Rp519
ag4
(g8
S'+l\x0e$Za\xe3?'
p520
tp521
Rp522
aF0.06586694717407227
aI250
aS'kernel = 0 degree'
p523
ag4
(g8
S'^\xbaI\x0c\x02+\xe7?'
p524
tp525
Rp526
ag4
(g8
S'h\xda\x1a\x7f7\x8f\xe0?'
p527
tp528
Rp529
aF0.06273317337036133
aI250
aS'kernel = 1 degree'
p530
ag4
(g8
S'\x12\x83\xc0\xca\xa1E\xe6?'
p531
tp532
Rp533
ag4
(g8
S'"e\xe0\xe9\xd6\xfc\xe0?'
p534
tp535
Rp536
aF0.07864904403686523
aI250
aS'kernel = 1 degree'
p537
aa(lp538
g4
(g8
S'\xb6\xf3\xfd\xd4x\xe9\xe6?'
p539
tp540
Rp541
ag4
(g8
S'i\xf7\xb0\xf5m\xc0\xe0?'
p542
tp543
Rp544
aF0.06594300270080566
aI250
aS'kernel = 1 degree'
p545
ag4
(g8
S'\n\xd7\xa3p=\n\xe7?'
p546
tp547
Rp548
ag4
(g8
S'\x19x\xba5?,\xe2?'
p549
tp550
Rp551
aF0.06261610984802246
aI250
aS'kernel = 1 degree'
p552
ag4
(g8
S'\xb6\xf3\xfd\xd4x\xe9\xe6?'
p553
tp554
Rp555
ag4
(g8
S'\xe0\xc9jyc\x04\xe3?'
p556
tp557
Rp558
aF0.058116912841796875
aI250
aS'kernel = 1 degree'
p559
aa(lp560
g4
(g8
S'V\x0e-\xb2\x9d\xef\xe7?'
p561
tp562
Rp563
ag4
(g8
S'\x18\xf4\x05}A_\xe0?'
p564
tp565
Rp566
aF0.0677180290222168
aI250
aS'kernel = 0 degree'
p567
ag4
(g8
S'\xfe\xd4x\xe9&1\xe8?'
p568
tp569
Rp570
ag4
(g8
S']\x9b(\xd9\xb5\x89\xe2?'
p571
tp572
Rp573
aF0.038211822509765625
aI250
aS'kernel = 1 degree'
p574
ag4
(g8
S'\n\xd7\xa3p=\n\xe7?'
p575
tp576
Rp577
ag4
(g8
S'\x1d\xc7q\x1c\xc7q\xe0?'
p578
tp579
Rp580
aF0.03577899932861328
aI250
aS'kernel = 0 degree'
p581
aa(lp582
g4
(g8
S'B`\xe5\xd0"\xdb\xe9?'
p583
tp584
Rp585
ag4
(g8
S'T\\2\x04\xebh\xe3?'
p586
tp587
Rp588
aF0.0658111572265625
aI250
aS'kernel = 0 degree'
p589
ag4
(g8
S'\x9e\xef\xa7\xc6K7\xe9?'
p590
tp591
Rp592
ag4
(g8
S'\x14m5x\x8e@\xe1?'
p593
tp594
Rp595
aF0.05992388725280762
aI250
aS'kernel = 1 degree'
p596
ag4
(g8
S'j\xbct\x93\x18\x04\xe6?'
p597
tp598
Rp599
ag4
(g8
S'\x0b\x9b\x03\x89V\xd8\xdc?'
p600
tp601
Rp602
aF0.03543400764465332
aI250
aS'kernel = 1 degree'
p603
aa(lp604
g4
(g8
S'\xfe\xd4x\xe9&1\xe8?'
p605
tp606
Rp607
ag4
(g8
S'"\xd0\x14\x02M!\xe0?'
p608
tp609
Rp610
aF0.05574798583984375
aI250
aS'kernel = 0 degree'
p611
ag4
(g8
S'\xfa~j\xbct\x93\xe8?'
p612
tp613
Rp614
ag4
(g8
S'\x89\x88\x88\x88\x88\x88\xe0?'
p615
tp616
Rp617
aF0.03847384452819824
aI250
aS'kernel = 0 degree'
p618
ag4
(g8
S'\xb6\xf3\xfd\xd4x\xe9\xe6?'
p619
tp620
Rp621
ag4
(g8
S'\x0e\x1b\xe9\xb0\x91\x0e\xdb?'
p622
tp623
Rp624
aF0.05979800224304199
aI250
aS'kernel = 0 degree'
p625
aa(lp626
g4
(g8
S'\xaeG\xe1z\x14\xae\xe7?'
p627
tp628
Rp629
ag4
(g8
S'\x8dy\xfah5\t\xe1?'
p630
tp631
Rp632
aF0.06640791893005371
aI250
aS'kernel = 0 degree'
p633
ag4
(g8
S'\x02+\x87\x16\xd9\xce\xe7?'
p634
tp635
Rp636
ag4
(g8
S'r\x1c\xc7q\x1c\xc7\xe1?'
p637
tp638
Rp639
aF0.038099050521850586
aI250
aS'kernel = 0 degree'
p640
ag4
(g8
S'\xc3\xf5(\\\x8f\xc2\xe5?'
p641
tp642
Rp643
ag4
(g8
S'\xde\xdd\xdd\xdd\xdd\xdd\xdd?'
p644
tp645
Rp646
aF0.03563690185546875
aI250
aS'kernel = 0 degree'
p647
aa(lp648
g4
(g8
S'\xaa\xf1\xd2Mb\x10\xe8?'
p649
tp650
Rp651
ag4
(g8
S'.\x19\x82u\xb4y\xdf?'
p652
tp653
Rp654
aF0.06280112266540527
aI250
aS'kernel = 0 degree'
p655
ag4
(g8
S'\n\xd7\xa3p=\n\xe7?'
p656
tp657
Rp658
ag4
(g8
S'\x9e\xd8\x89\x9d\xd8\x89\xdd?'
p659
tp660
Rp661
aF0.06275200843811035
aI250
aS'kernel = 0 degree'
p662
ag4
(g8
S'^\xbaI\x0c\x02+\xe7?'
p663
tp664
Rp665
ag4
(g8
S'\x9e\xf4I\x9f\xf4I\xdf?'
p666
tp667
Rp668
aF0.055045127868652344
aI250
aS'kernel = 0 degree'
p669
aa(lp670
g4
(g8
S'\xf6(\\\x8f\xc2\xf5\xe8?'
p671
tp672
Rp673
ag4
(g8
S'\xebQ\xb8\x1e\x85\xeb\xe1?'
p674
tp675
Rp676
aF0.0670778751373291
aI250
aS'kernel = 1 degree'
p677
ag4
(g8
S'\xfa~j\xbct\x93\xe8?'
p678
tp679
Rp680
ag4
(g8
S'\xff\xff\xff\xff\xff\x7f\xe1?'
p681
tp682
Rp683
aF0.06125378608703613
aI250
aS'kernel = 1 degree'
p684
ag4
(g8
S'\xcb\xa1E\xb6\xf3\xfd\xe4?'
p685
tp686
Rp687
ag4
(g8
S'\xfa\xac\x1bL\x91\xcf\xda?'
p688
tp689
Rp690
aF0.05676984786987305
aI250
aS'kernel = 1 degree'
p691
aa(lp692
g4
(g8
S'\x06\x81\x95C\x8bl\xe7?'
p693
tp694
Rp695
ag4
(g8
S'\x19\x04V\x0e-\xb2\xdd?'
p696
tp697
Rp698
aF0.06570196151733398
aI250
aS'kernel = 1 degree'
p699
ag4
(g8
S'\x06\x81\x95C\x8bl\xe7?'
p700
tp701
Rp702
ag4
(g8
S'\xdd\x98\xa7\x8fV\x93\xe0?'
p703
tp704
Rp705
aF0.06244087219238281
aI250
aS'kernel = 0 degree'
p706
ag4
(g8
S'\xaa\xf1\xd2Mb\x10\xe8?'
p707
tp708
Rp709
ag4
(g8
S'\x11\x04A\x10\x04A\xe0?'
p710
tp711
Rp712
aF0.0580899715423584
aI250
aS'kernel = 0 degree'
p713
aa(lp714
g4
(g8
S'V\x0e-\xb2\x9d\xef\xe7?'
p715
tp716
Rp717
ag4
(g8
S'W9\xb4\xc8v\xbe\xdf?'
p718
tp719
Rp720
aF0.06713581085205078
aI250
aS'kernel = 0 degree'
p721
ag4
(g8
S'\n\xd7\xa3p=\n\xe7?'
p722
tp723
Rp724
ag4
(g8
S'\x0f\x0f\x0f\x0f\x0f\x0f\xdf?'
p725
tp726
Rp727
aF0.06209301948547363
aI250
aS'kernel = 1 degree'
p728
ag4
(g8
S'V\x0e-\xb2\x9d\xef\xe7?'
p729
tp730
Rp731
ag4
(g8
S'G}g\xa3\xbe\xb3\xe1?'
p732
tp733
Rp734
aF0.05744600296020508
aI250
aS'kernel = 1 degree'
p735
aa(lp736
g4
(g8
S'\x06\x81\x95C\x8bl\xe7?'
p737
tp738
Rp739
ag4
(g8
S'#\x1d6\xd2a#\xdd?'
p740
tp741
Rp742
aF0.042997121810913086
aI250
aS'kernel = 0 degree'
p743
ag4
(g8
S'b\x10X9\xb4\xc8\xe6?'
p744
tp745
Rp746
ag4
(g8
S'\xdd\xc8\x8d\xdc\xc8\x8d\xdc?'
p747
tp748
Rp749
aF0.0608980655670166
aI250
aS'kernel = 1 degree'
p750
ag4
(g8
S'\x0e-\xb2\x9d\xef\xa7\xe6?'
p751
tp752
Rp753
ag4
(g8
S'H\xd6\xb9\xf2\x80d\xdd?'
p754
tp755
Rp756
aF0.057832956314086914
aI250
aS'kernel = 0 degree'
p757
aa(lp758
g4
(g8
S'\xf6(\\\x8f\xc2\xf5\xe8?'
p759
tp760
Rp761
ag4
(g8
S'\x0bY\xc8B\x16\xb2\xe0?'
p762
tp763
Rp764
aF0.04063105583190918
aI250
aS'kernel = 1 degree'
p765
ag4
(g8
S'\xa6\x9b\xc4 \xb0r\xe8?'
p766
tp767
Rp768
ag4
(g8
S'\x90k"\x90k"\xe0?'
p769
tp770
Rp771
aF0.03865313529968262
aI250
aS'kernel = 0 degree'
p772
ag4
(g8
S'\xa6\x9b\xc4 \xb0r\xe8?'
p773
tp774
Rp775
ag4
(g8
S'\xdf\x1c}s\xf4\xcd\xe1?'
p776
tp777
Rp778
aF0.03540802001953125
aI250
aS'kernel = 1 degree'
p779
aa(lp780
g4
(g8
S'\xfe\xd4x\xe9&1\xe8?'
p781
tp782
Rp783
ag4
(g8
S',\x15\xb1T\xc4R\xe1?'
p784
tp785
Rp786
aF0.06758594512939453
aI250
aS'kernel = 1 degree'
p787
ag4
(g8
S'\xa6\x9b\xc4 \xb0r\xe8?'
p788
tp789
Rp790
ag4
(g8
S'I$\x12\x89D"\xe1?'
p791
tp792
Rp793
aF0.06079506874084473
aI250
aS'kernel = 1 degree'
p794
ag4
(g8
S'\xbaI\x0c\x02+\x87\xe6?'
p795
tp796
Rp797
ag4
(g8
S'\xfc\xf8\xf1\xe3\xc7\x8f\xdf?'
p798
tp799
Rp800
aF0.035553932189941406
aI250
aS'kernel = 0 degree'
p801
aa(lp802
g4
(g8
S'\xa6\x9b\xc4 \xb0r\xe8?'
p803
tp804
Rp805
ag4
(g8
S'K7\x89A`\xe5\xe0?'
p806
tp807
Rp808
aF0.06547188758850098
aI250
aS'kernel = 0 degree'
p809
ag4
(g8
S'V\x0e-\xb2\x9d\xef\xe7?'
p810
tp811
Rp812
ag4
(g8
S'\xc5\xfb\x91\xd3|\xad\xde?'
p813
tp814
Rp815
aF0.0635368824005127
aI250
aS'kernel = 0 degree'
p816
ag4
(g8
S'\xfa~j\xbct\x93\xe8?'
p817
tp818
Rp819
ag4
(g8
S'ZZZZZZ\xe2?'
p820
tp821
Rp822
aF0.05783987045288086
aI250
aS'kernel = 1 degree'
p823
aa(lp824
g4
(g8
S'\xa2E\xb6\xf3\xfd\xd4\xe8?'
p825
tp826
Rp827
ag4
(g8
S'\xdc\xd3\x08\xcb=\x8d\xe0?'
p828
tp829
Rp830
aF0.06612586975097656
aI250
aS'kernel = 0 degree'
p831
ag4
(g8
S'\x02+\x87\x16\xd9\xce\xe7?'
p832
tp833
Rp834
ag4
(g8
S'\xdf\xf7}\xdf\xf7}\xdf?'
p835
tp836
Rp837
aF0.0603790283203125
aI250
aS'kernel = 1 degree'
p838
ag4
(g8
S'\xa6\x9b\xc4 \xb0r\xe8?'
p839
tp840
Rp841
ag4
(g8
S'ch\xba\x83\xfdV\xdb?'
p842
tp843
Rp844
aF0.03546786308288574
aI250
aS'kernel = 0 degree'
p845
aa(lp846
g4
(g8
S'\xfe\xd4x\xe9&1\xe8?'
p847
tp848
Rp849
ag4
(g8
S'\x9fz1\x9fz1\xdf?'
p850
tp851
Rp852
aF0.06648397445678711
aI250
aS'kernel = 0 degree'
p853
ag4
(g8
S'\xaa\xf1\xd2Mb\x10\xe8?'
p854
tp855
Rp856
ag4
(g8
S'jiiiii\xe1?'
p857
tp858
Rp859
aF0.06199002265930176
aI250
aS'kernel = 0 degree'
p860
ag4
(g8
S'\xb2\x9d\xef\xa7\xc6K\xe7?'
p861
tp862
Rp863
ag4
(g8
S'\x00\x00\x00\x00\x00\x00\xde?'
p864
tp865
Rp866
aF0.03611397743225098
aI250
aS'kernel = 0 degree'
p867
aa(lp868
g4
(g8
S'\xfe\xd4x\xe9&1\xe8?'
p869
tp870
Rp871
ag4
(g8
S'\xf0:\xa0\x1b\xf3\xf4\xe1?'
p872
tp873
Rp874
aF0.06515288352966309
aI250
aS'kernel = 1 degree'
p875
ag4
(g8
S'ffffff\xe6?'
p876
tp877
Rp878
ag4
(g8
S'x6\xea;\x1b\xf5\xdd?'
p879
tp880
Rp881
aF0.037774085998535156
aI250
aS'kernel = 0 degree'
p882
ag4
(g8
S'\xbaI\x0c\x02+\x87\xe6?'
p883
tp884
Rp885
ag4
(g8
S'\xbd\x86\xf2\x1a\xcak\xe0?'
p886
tp887
Rp888
aF0.057576894760131836
aI250
aS'kernel = 0 degree'
p889
aa(lp890
g4
(g8
S'\xaeG\xe1z\x14\xae\xe7?'
p891
tp892
Rp893
ag4
(g8
S'\xb8\x1e\x85\xebQ\xb8\xde?'
p894
tp895
Rp896
aF0.06502795219421387
aI250
aS'kernel = 1 degree'
p897
ag4
(g8
S'\xaa\xf1\xd2Mb\x10\xe8?'
p898
tp899
Rp900
ag4
(g8
S'/\x19\x82u\xb4y\xdf?'
p901
tp902
Rp903
aF0.05798602104187012
aI250
aS'kernel = 0 degree'
p904
ag4
(g8
S'\x02+\x87\x16\xd9\xce\xe7?'
p905
tp906
Rp907
ag4
(g8
S'|\xf0\xc1\x07\x1f|\xe0?'
p908
tp909
Rp910
aF0.055693864822387695
aI250
aS'kernel = 0 degree'
p911
aa(lp912
g4
(g8
S'V\x0e-\xb2\x9d\xef\xe7?'
p913
tp914
Rp915
ag4
(g8
S'\x1e\x1e\x1e\x1e\x1e\x1e\xde?'
p916
tp917
Rp918
aF0.0406801700592041
aI250
aS'kernel = 0 degree'
p919
ag4
(g8
S'\xd3Mb\x10X9\xe4?'
p920
tp921
Rp922
ag4
(g8
S'\xcd\x0f\x8b\x94\x81\xa7\xdb?'
p923
tp924
Rp925
aF0.060939788818359375
aI250
aS'kernel = 1 degree'
p926
ag4
(g8
S'\x0e-\xb2\x9d\xef\xa7\xe6?'
p927
tp928
Rp929
ag4
(g8
S'\x8a\x86\xf8\xe3\xd6\xe5\xdd?'
p930
tp931
Rp932
aF0.035874128341674805
aI250
aS'kernel = 1 degree'
p933
aa(lp934
g4
(g8
S'\xfe\xd4x\xe9&1\xe8?'
p935
tp936
Rp937
ag4
(g8
S',\x15\xb1T\xc4R\xe1?'
p938
tp939
Rp940
aF0.06647801399230957
aI250
aS'kernel = 1 degree'
p941
ag4
(g8
S'\xfa~j\xbct\x93\xe8?'
p942
tp943
Rp944
ag4
(g8
S'\xf0\xc1\x07\x1f|\xf0\xe1?'
p945
tp946
Rp947
aF0.038330078125
aI250
aS'kernel = 1 degree'
p948
ag4
(g8
S'R\xb8\x1e\x85\xebQ\xe8?'
p949
tp950
Rp951
ag4
(g8
S'\xff\xff\xff\xff\xff\xff\xe0?'
p952
tp953
Rp954
aF0.05826687812805176
aI250
aS'kernel = 0 degree'
p955
aa(lp956
g4
(g8
S'\xaa\xf1\xd2Mb\x10\xe8?'
p957
tp958
Rp959
ag4
(g8
S'B\x1d\xd4A\x1d\xd4\xe1?'
p960
tp961
Rp962
aF0.06601810455322266
aI250
aS'kernel = 1 degree'
p963
ag4
(g8
S'\xfe\xd4x\xe9&1\xe8?'
p964
tp965
Rp966
ag4
(g8
S'\xef:\xa0\x1b\xf3\xf4\xe1?'
p967
tp968
Rp969
aF0.06273603439331055
aI250
aS'kernel = 0 degree'
p970
ag4
(g8
S'^\xbaI\x0c\x02+\xe7?'
p971
tp972
Rp973
ag4
(g8
S'AL\xae &W\xe0?'
p974
tp975
Rp976
aF0.058281898498535156
aI250
aS'kernel = 0 degree'
p977
aa(lp978
g4
(g8
S'\xa6\x9b\xc4 \xb0r\xe8?'
p979
tp980
Rp981
ag4
(g8
S'\xacg\x87\xc0\x8de\xe0?'
p982
tp983
Rp984
aF0.0677180290222168
aI250
aS'kernel = 0 degree'
p985
ag4
(g8
S'\xaa\xf1\xd2Mb\x10\xe8?'
p986
tp987
Rp988
ag4
(g8
S"W\x04\r'u_\xde?"
p989
tp990
Rp991
aF0.06214094161987305
aI250
aS'kernel = 0 degree'
p992
ag4
(g8
S'^\xbaI\x0c\x02+\xe7?'
p993
tp994
Rp995
ag4
(g8
S'\x9f\xf4I\x9f\xf4I\xdf?'
p996
tp997
Rp998
aF0.05733489990234375
aI250
aS'kernel = 0 degree'
p999
aa(lp1000
g4
(g8
S'\xb6\xf3\xfd\xd4x\xe9\xe6?'
p1001
tp1002
Rp1003
ag4
(g8
S'i\xf7\xb0\xf5m\xc0\xe0?'
p1004
tp1005
Rp1006
aF0.06602907180786133
aI250
aS'kernel = 1 degree'
p1007
ag4
(g8
S'^\xbaI\x0c\x02+\xe7?'
p1008
tp1009
Rp1010
ag4
(g8
S'\xc1\xd1\x13\x1c=\xc1\xe1?'
p1011
tp1012
Rp1013
aF0.05826115608215332
aI250
aS'kernel = 1 degree'
p1014
ag4
(g8
S'{\x14\xaeG\xe1z\xe4?'
p1015
tp1016
Rp1017
ag4
(g8
S'\xd0\x02-\xd0\x02-\xe0?'
p1018
tp1019
Rp1020
aF0.035089969635009766
aI250
aS'kernel = 1 degree'
p1021
aa(lp1022
g4
(g8
S'B`\xe5\xd0"\xdb\xe9?'
p1023
tp1024
Rp1025
ag4
(g8
S'T\\2\x04\xebh\xe3?'
p1026
tp1027
Rp1028
aF0.06687498092651367
aI250
aS'kernel = 0 degree'
p1029
ag4
(g8
S'\x9a\x99\x99\x99\x99\x99\xe9?'
p1030
tp1031
Rp1032
ag4
(g8
S't\xd1E\x17]t\xe1?'
p1033
tp1034
Rp1035
aF0.05800318717956543
aI250
aS'kernel = 0 degree'
p1036
ag4
(g8
S'\x02+\x87\x16\xd9\xce\xe7?'
p1037
tp1038
Rp1039
ag4
(g8
S'\xf8\xde{\xef\xbd\xf7\xde?'
p1040
tp1041
Rp1042
aF0.05760693550109863
aI250
aS'kernel = 1 degree'
p1043
aa(lp1044
g4
(g8
S'Zd;\xdfO\x8d\xe7?'
p1045
tp1046
Rp1047
ag4
(g8
S'xxxxxx\xe0?'
p1048
tp1049
Rp1050
aF0.06573009490966797
aI250
aS'kernel = 1 degree'
p1051
ag4
(g8
S'\xaa\xf1\xd2Mb\x10\xe8?'
p1052
tp1053
Rp1054
ag4
(g8
S'*g\xb7\xf0\xab1\xe1?'
p1055
tp1056
Rp1057
aF0.058110952377319336
aI250
aS'kernel = 1 degree'
p1058
ag4
(g8
S'\x06\x81\x95C\x8bl\xe7?'
p1059
tp1060
Rp1061
ag4
(g8
S'+\x12\xaf"\xf1*\xe2?'
p1062
tp1063
Rp1064
aF0.035130977630615234
aI250
aS'kernel = 0 degree'
p1065
aa(lp1066
g4
(g8
S'\xf6(\\\x8f\xc2\xf5\xe8?'
p1067
tp1068
Rp1069
ag4
(g8
S'h/\xa1\xbd\x84\xf6\xe2?'
p1070
tp1071
Rp1072
aF0.040396928787231445
aI250
aS'kernel = 1 degree'
p1073
ag4
(g8
S'\xfa~j\xbct\x93\xe8?'
p1074
tp1075
Rp1076
ag4
(g8
S'\xf0\xc1\x07\x1f|\xf0\xe1?'
p1077
tp1078
Rp1079
aF0.06219792366027832
aI250
aS'kernel = 0 degree'
p1080
ag4
(g8
S'\xaeG\xe1z\x14\xae\xe7?'
p1081
tp1082
Rp1083
ag4
(g8
S'{\t\xed%\xb4\x97\xe0?'
p1084
tp1085
Rp1086
aF0.05761313438415527
aI250
aS'kernel = 0 degree'
p1087
aa(lp1088
g4
(g8
S'V\x0e-\xb2\x9d\xef\xe7?'
p1089
tp1090
Rp1091
ag4
(g8
S'G}g\xa3\xbe\xb3\xe1?'
p1092
tp1093
Rp1094
aF0.06563997268676758
aI250
aS'kernel = 0 degree'
p1095
ag4
(g8
S'\xaa\xf1\xd2Mb\x10\xe8?'
p1096
tp1097
Rp1098
ag4
(g8
S'+g\xb7\xf0\xab1\xe1?'
p1099
tp1100
Rp1101
aF0.06620216369628906
aI250
aS'kernel = 1 degree'
p1102
ag4
(g8
S'Zd;\xdfO\x8d\xe7?'
p1103
tp1104
Rp1105
ag4
(g8
S'\x8c\x181b\xc4\x88\xe1?'
p1106
tp1107
Rp1108
aF0.05764508247375488
aI250
aS'kernel = 1 degree'
p1109
aas.